                              1 ;--------------------------------------------------------
                              2 ; File Created by SDCC : FreeWare ANSI-C Compiler
                              3 ; Version 2.2.1 Sat Aug 17 02:19:30 2019
                              4 
                              5 ;--------------------------------------------------------
                              6 	.module lcc57560
                              7 	
                              8 ;--------------------------------------------------------
                              9 ; Public variables in this module
                             10 ;--------------------------------------------------------
                             11 	.globl _main
                             12 	.globl _fire_bullet
                             13 	.globl _set_up_enemy
                             14 	.globl _set_up_bullet
                             15 	.globl _set_up_player
                             16 	.globl _collide_game_characters
                             17 	.globl _check_collision
                             18 	.globl _update_game_character
                             19 	.globl _move_game_character
                             20 	.globl _play_sound
                             21 	.globl _rand_range
                             22 	.globl _performant_delay
                             23 	.globl _rand
                             24 	.globl _move_sprite
                             25 	.globl _set_sprite_tile
                             26 	.globl _set_sprite_data
                             27 	.globl _wait_vbl_done
                             28 	.globl _joypad
                             29 	.globl _next_sprite_index
                             30 	.globl _update_count
                             31 	.globl _enemies
                             32 	.globl _bullet
                             33 	.globl _player
                             34 	.globl _SpriteData
                             35 	.globl _main
                             36 	.globl _fire_bullet
                             37 	.globl _set_up_enemy
                             38 	.globl _set_up_bullet
                             39 	.globl _set_up_player
                             40 	.globl _collide_game_characters
                             41 	.globl _check_collision
                             42 	.globl _update_game_character
                             43 	.globl _move_game_character
                             44 	.globl _play_sound
                             45 	.globl _rand_range
                             46 	.globl _performant_delay
                             47 ;--------------------------------------------------------
                             48 ; Externals used
                             49 ;--------------------------------------------------------
                             50 	.globl _IE_REG
                             51 	.globl _SVBK_REG
                             52 	.globl _OCPD_REG
                             53 	.globl _OCPS_REG
                             54 	.globl _BCPD_REG
                             55 	.globl _BCPS_REG
                             56 	.globl _RP_REG
                             57 	.globl _HDMA5_REG
                             58 	.globl _HDMA4_REG
                             59 	.globl _HDMA3_REG
                             60 	.globl _HDMA2_REG
                             61 	.globl _HDMA1_REG
                             62 	.globl _VBK_REG
                             63 	.globl _KEY1_REG
                             64 	.globl _WX_REG
                             65 	.globl _WY_REG
                             66 	.globl _OBP1_REG
                             67 	.globl _OBP0_REG
                             68 	.globl _BGP_REG
                             69 	.globl _DMA_REG
                             70 	.globl _LYC_REG
                             71 	.globl _LY_REG
                             72 	.globl _SCX_REG
                             73 	.globl _SCY_REG
                             74 	.globl _STAT_REG
                             75 	.globl _LCDC_REG
                             76 	.globl _NR52_REG
                             77 	.globl _NR51_REG
                             78 	.globl _NR50_REG
                             79 	.globl _NR44_REG
                             80 	.globl _NR43_REG
                             81 	.globl _NR42_REG
                             82 	.globl _NR41_REG
                             83 	.globl _NR34_REG
                             84 	.globl _NR33_REG
                             85 	.globl _NR32_REG
                             86 	.globl _NR31_REG
                             87 	.globl _NR30_REG
                             88 	.globl _NR24_REG
                             89 	.globl _NR23_REG
                             90 	.globl _NR22_REG
                             91 	.globl _NR21_REG
                             92 	.globl _NR14_REG
                             93 	.globl _NR13_REG
                             94 	.globl _NR12_REG
                             95 	.globl _NR11_REG
                             96 	.globl _NR10_REG
                             97 	.globl _IF_REG
                             98 	.globl _TAC_REG
                             99 	.globl _TMA_REG
                            100 	.globl _TIMA_REG
                            101 	.globl _DIV_REG
                            102 	.globl _SC_REG
                            103 	.globl _SB_REG
                            104 	.globl _P1_REG
                            105 	.globl __io_out
                            106 	.globl __io_in
                            107 	.globl __io_status
                            108 	.globl _sys_time
                            109 	.globl __cpu
                            110 ;--------------------------------------------------------
                            111 ; special function registers
                            112 ;--------------------------------------------------------
                            113 ;--------------------------------------------------------
                            114 ; special function bits 
                            115 ;--------------------------------------------------------
                            116 ;--------------------------------------------------------
                            117 ; internal ram data
                            118 ;--------------------------------------------------------
                            119 	.area _DATA
   0000                     120 _SpriteData::
   0000                     121 	.ds 384
   0180                     122 _player::
   0180                     123 	.ds 11
   018B                     124 _bullet::
   018B                     125 	.ds 11
   0196                     126 _enemies::
   0196                     127 	.ds 33
   01B7                     128 _update_count::
   01B7                     129 	.ds 1
   01B8                     130 _next_sprite_index::
   01B8                     131 	.ds 1
                            132 ;--------------------------------------------------------
                            133 ; overlayable items in internal ram 
                            134 ;--------------------------------------------------------
                            135 	.area _OVERLAY
                            136 ;--------------------------------------------------------
                            137 ; indirectly addressable internal ram data
                            138 ;--------------------------------------------------------
                            139 	.area _ISEG
                            140 ;--------------------------------------------------------
                            141 ; bit data
                            142 ;--------------------------------------------------------
                            143 	.area _BSEG
                            144 ;--------------------------------------------------------
                            145 ; external ram data
                            146 ;--------------------------------------------------------
                            147 	.area _XSEG
                            148 ;--------------------------------------------------------
                            149 ; global & static initialisations
                            150 ;--------------------------------------------------------
                            151 	.area _GSINIT
                            152 	.area _GSFINAL
                            153 	.area _GSINIT
                            154 ;	main.c 333
                            155 ; genAssign (pointer)
   0000 11 00 00            156 	ld	de,#_SpriteData + 0
   0003 3E 01               157 	ld	a,#0x01
   0005 12                  158 	ld	(de),a
                            159 ; genPlus
                            160 ; genPlusIncr
   0006 11 01 00            161 	ld	de,#_SpriteData + 0 + 1
                            162 ; genAssign (pointer)
   0009 3E 01               163 	ld	a,#0x01
   000B 12                  164 	ld	(de),a
                            165 ; genPlus
                            166 ; genPlusIncr
   000C 11 02 00            167 	ld	de,#_SpriteData + 0 + 2
                            168 ; genAssign (pointer)
   000F 3E 03               169 	ld	a,#0x03
   0011 12                  170 	ld	(de),a
                            171 ; genPlus
                            172 ; genPlusIncr
   0012 11 03 00            173 	ld	de,#_SpriteData + 0 + 3
                            174 ; genAssign (pointer)
   0015 3E 02               175 	ld	a,#0x02
   0017 12                  176 	ld	(de),a
                            177 ; genPlus
                            178 ; genPlusIncr
   0018 11 04 00            179 	ld	de,#_SpriteData + 0 + 4
                            180 ; genAssign (pointer)
   001B 3E 03               181 	ld	a,#0x03
   001D 12                  182 	ld	(de),a
                            183 ; genPlus
                            184 ; genPlusIncr
   001E 11 05 00            185 	ld	de,#_SpriteData + 0 + 5
                            186 ; genAssign (pointer)
   0021 3E 02               187 	ld	a,#0x02
   0023 12                  188 	ld	(de),a
                            189 ; genPlus
                            190 ; genPlusIncr
   0024 11 06 00            191 	ld	de,#_SpriteData + 0 + 6
                            192 ; genAssign (pointer)
   0027 3E 03               193 	ld	a,#0x03
   0029 12                  194 	ld	(de),a
                            195 ; genPlus
                            196 ; genPlusIncr
   002A 11 07 00            197 	ld	de,#_SpriteData + 0 + 7
                            198 ; genAssign (pointer)
   002D 3E 02               199 	ld	a,#0x02
   002F 12                  200 	ld	(de),a
                            201 ; genPlus
                            202 ; genPlusIncr
   0030 11 08 00            203 	ld	de,#_SpriteData + 0 + 8
                            204 ; genAssign (pointer)
   0033 3E 07               205 	ld	a,#0x07
   0035 12                  206 	ld	(de),a
                            207 ; genPlus
                            208 ; genPlusIncr
   0036 11 09 00            209 	ld	de,#_SpriteData + 0 + 9
                            210 ; genAssign (pointer)
   0039 3E 04               211 	ld	a,#0x04
   003B 12                  212 	ld	(de),a
                            213 ; genPlus
                            214 ; genPlusIncr
   003C 11 0A 00            215 	ld	de,#_SpriteData + 0 + 10
                            216 ; genAssign (pointer)
   003F 3E 1F               217 	ld	a,#0x1F
   0041 12                  218 	ld	(de),a
                            219 ; genPlus
                            220 ; genPlusIncr
   0042 11 0B 00            221 	ld	de,#_SpriteData + 0 + 11
                            222 ; genAssign (pointer)
   0045 3E 1D               223 	ld	a,#0x1D
   0047 12                  224 	ld	(de),a
                            225 ; genPlus
                            226 ; genPlusIncr
   0048 11 0C 00            227 	ld	de,#_SpriteData + 0 + 12
                            228 ; genAssign (pointer)
   004B 3E 17               229 	ld	a,#0x17
   004D 12                  230 	ld	(de),a
                            231 ; genPlus
                            232 ; genPlusIncr
   004E 11 0D 00            233 	ld	de,#_SpriteData + 0 + 13
                            234 ; genAssign (pointer)
   0051 3E 1C               235 	ld	a,#0x1C
   0053 12                  236 	ld	(de),a
                            237 ; genPlus
                            238 ; genPlusIncr
   0054 11 0E 00            239 	ld	de,#_SpriteData + 0 + 14
                            240 ; genAssign (pointer)
   0057 3E 17               241 	ld	a,#0x17
   0059 12                  242 	ld	(de),a
                            243 ; genPlus
                            244 ; genPlusIncr
   005A 11 0F 00            245 	ld	de,#_SpriteData + 0 + 15
                            246 ; genAssign (pointer)
   005D 3E 1D               247 	ld	a,#0x1D
   005F 12                  248 	ld	(de),a
                            249 ; genPlus
                            250 ; genPlusIncr
   0060 11 10 00            251 	ld	de,#_SpriteData + 0 + 16
                            252 ; genAssign (pointer)
   0063 3E 80               253 	ld	a,#0x80
   0065 12                  254 	ld	(de),a
                            255 ; genPlus
                            256 ; genPlusIncr
   0066 11 11 00            257 	ld	de,#_SpriteData + 0 + 17
                            258 ; genAssign (pointer)
   0069 3E 80               259 	ld	a,#0x80
   006B 12                  260 	ld	(de),a
                            261 ; genPlus
                            262 ; genPlusIncr
   006C 11 12 00            263 	ld	de,#_SpriteData + 0 + 18
                            264 ; genAssign (pointer)
   006F 3E C0               265 	ld	a,#0xC0
   0071 12                  266 	ld	(de),a
                            267 ; genPlus
                            268 ; genPlusIncr
   0072 11 13 00            269 	ld	de,#_SpriteData + 0 + 19
                            270 ; genAssign (pointer)
   0075 3E 40               271 	ld	a,#0x40
   0077 12                  272 	ld	(de),a
                            273 ; genPlus
                            274 ; genPlusIncr
   0078 11 14 00            275 	ld	de,#_SpriteData + 0 + 20
                            276 ; genAssign (pointer)
   007B 3E C0               277 	ld	a,#0xC0
   007D 12                  278 	ld	(de),a
                            279 ; genPlus
                            280 ; genPlusIncr
   007E 11 15 00            281 	ld	de,#_SpriteData + 0 + 21
                            282 ; genAssign (pointer)
   0081 3E 40               283 	ld	a,#0x40
   0083 12                  284 	ld	(de),a
                            285 ; genPlus
                            286 ; genPlusIncr
   0084 11 16 00            287 	ld	de,#_SpriteData + 0 + 22
                            288 ; genAssign (pointer)
   0087 3E C0               289 	ld	a,#0xC0
   0089 12                  290 	ld	(de),a
                            291 ; genPlus
                            292 ; genPlusIncr
   008A 11 17 00            293 	ld	de,#_SpriteData + 0 + 23
                            294 ; genAssign (pointer)
   008D 3E 40               295 	ld	a,#0x40
   008F 12                  296 	ld	(de),a
                            297 ; genPlus
                            298 ; genPlusIncr
   0090 11 18 00            299 	ld	de,#_SpriteData + 0 + 24
                            300 ; genAssign (pointer)
   0093 3E E0               301 	ld	a,#0xE0
   0095 12                  302 	ld	(de),a
                            303 ; genPlus
                            304 ; genPlusIncr
   0096 11 19 00            305 	ld	de,#_SpriteData + 0 + 25
                            306 ; genAssign (pointer)
   0099 3E 20               307 	ld	a,#0x20
   009B 12                  308 	ld	(de),a
                            309 ; genPlus
                            310 ; genPlusIncr
   009C 11 1A 00            311 	ld	de,#_SpriteData + 0 + 26
                            312 ; genAssign (pointer)
   009F 3E F8               313 	ld	a,#0xF8
   00A1 12                  314 	ld	(de),a
                            315 ; genPlus
                            316 ; genPlusIncr
   00A2 11 1B 00            317 	ld	de,#_SpriteData + 0 + 27
                            318 ; genAssign (pointer)
   00A5 3E B8               319 	ld	a,#0xB8
   00A7 12                  320 	ld	(de),a
                            321 ; genPlus
                            322 ; genPlusIncr
   00A8 11 1C 00            323 	ld	de,#_SpriteData + 0 + 28
                            324 ; genAssign (pointer)
   00AB 3E E8               325 	ld	a,#0xE8
   00AD 12                  326 	ld	(de),a
                            327 ; genPlus
                            328 ; genPlusIncr
   00AE 11 1D 00            329 	ld	de,#_SpriteData + 0 + 29
                            330 ; genAssign (pointer)
   00B1 3E 38               331 	ld	a,#0x38
   00B3 12                  332 	ld	(de),a
                            333 ; genPlus
                            334 ; genPlusIncr
   00B4 11 1E 00            335 	ld	de,#_SpriteData + 0 + 30
                            336 ; genAssign (pointer)
   00B7 3E E8               337 	ld	a,#0xE8
   00B9 12                  338 	ld	(de),a
                            339 ; genPlus
                            340 ; genPlusIncr
   00BA 11 1F 00            341 	ld	de,#_SpriteData + 0 + 31
                            342 ; genAssign (pointer)
   00BD 3E B8               343 	ld	a,#0xB8
   00BF 12                  344 	ld	(de),a
                            345 ; genPlus
                            346 ; genPlusIncr
   00C0 11 20 00            347 	ld	de,#_SpriteData + 0 + 32
                            348 ; genAssign (pointer)
   00C3 3E 7F               349 	ld	a,#0x7F
   00C5 12                  350 	ld	(de),a
                            351 ; genPlus
                            352 ; genPlusIncr
   00C6 11 21 00            353 	ld	de,#_SpriteData + 0 + 33
                            354 ; genAssign (pointer)
   00C9 3E 78               355 	ld	a,#0x78
   00CB 12                  356 	ld	(de),a
                            357 ; genPlus
                            358 ; genPlusIncr
   00CC 11 22 00            359 	ld	de,#_SpriteData + 0 + 34
                            360 ; genAssign (pointer)
   00CF 3E FF               361 	ld	a,#0xFF
   00D1 12                  362 	ld	(de),a
                            363 ; genPlus
                            364 ; genPlusIncr
   00D2 11 23 00            365 	ld	de,#_SpriteData + 0 + 35
                            366 ; genAssign (pointer)
   00D5 3E B1               367 	ld	a,#0xB1
   00D7 12                  368 	ld	(de),a
                            369 ; genPlus
                            370 ; genPlusIncr
   00D8 11 24 00            371 	ld	de,#_SpriteData + 0 + 36
                            372 ; genAssign (pointer)
   00DB 3E FF               373 	ld	a,#0xFF
   00DD 12                  374 	ld	(de),a
                            375 ; genPlus
                            376 ; genPlusIncr
   00DE 11 25 00            377 	ld	de,#_SpriteData + 0 + 37
                            378 ; genAssign (pointer)
   00E1 3E A0               379 	ld	a,#0xA0
   00E3 12                  380 	ld	(de),a
                            381 ; genPlus
                            382 ; genPlusIncr
   00E4 11 26 00            383 	ld	de,#_SpriteData + 0 + 38
                            384 ; genAssign (pointer)
   00E7 3E FF               385 	ld	a,#0xFF
   00E9 12                  386 	ld	(de),a
                            387 ; genPlus
                            388 ; genPlusIncr
   00EA 11 27 00            389 	ld	de,#_SpriteData + 0 + 39
                            390 ; genAssign (pointer)
   00ED 3E 85               391 	ld	a,#0x85
   00EF 12                  392 	ld	(de),a
                            393 ; genPlus
                            394 ; genPlusIncr
   00F0 11 28 00            395 	ld	de,#_SpriteData + 0 + 40
                            396 ; genAssign (pointer)
   00F3 3E FF               397 	ld	a,#0xFF
   00F5 12                  398 	ld	(de),a
                            399 ; genPlus
                            400 ; genPlusIncr
   00F6 11 29 00            401 	ld	de,#_SpriteData + 0 + 41
                            402 ; genAssign (pointer)
   00F9 3E 8C               403 	ld	a,#0x8C
   00FB 12                  404 	ld	(de),a
                            405 ; genPlus
                            406 ; genPlusIncr
   00FC 11 2A 00            407 	ld	de,#_SpriteData + 0 + 42
                            408 ; genAssign (pointer)
   00FF 3E F7               409 	ld	a,#0xF7
   0101 12                  410 	ld	(de),a
                            411 ; genPlus
                            412 ; genPlusIncr
   0102 11 2B 00            413 	ld	de,#_SpriteData + 0 + 43
                            414 ; genAssign (pointer)
   0105 3E 9E               415 	ld	a,#0x9E
   0107 12                  416 	ld	(de),a
                            417 ; genPlus
                            418 ; genPlusIncr
   0108 11 2C 00            419 	ld	de,#_SpriteData + 0 + 44
                            420 ; genAssign (pointer)
   010B 3E FF               421 	ld	a,#0xFF
   010D 12                  422 	ld	(de),a
                            423 ; genPlus
                            424 ; genPlusIncr
   010E 11 2D 00            425 	ld	de,#_SpriteData + 0 + 45
                            426 ; genAssign (pointer)
   0111 3E BF               427 	ld	a,#0xBF
   0113 12                  428 	ld	(de),a
                            429 ; genPlus
                            430 ; genPlusIncr
   0114 11 2E 00            431 	ld	de,#_SpriteData + 0 + 46
                            432 ; genAssign (pointer)
   0117 3E 60               433 	ld	a,#0x60
   0119 12                  434 	ld	(de),a
                            435 ; genPlus
                            436 ; genPlusIncr
   011A 11 2F 00            437 	ld	de,#_SpriteData + 0 + 47
                            438 ; genAssign (pointer)
   011D 3E 60               439 	ld	a,#0x60
   011F 12                  440 	ld	(de),a
                            441 ; genPlus
                            442 ; genPlusIncr
   0120 11 30 00            443 	ld	de,#_SpriteData + 0 + 48
                            444 ; genAssign (pointer)
   0123 3E FE               445 	ld	a,#0xFE
   0125 12                  446 	ld	(de),a
                            447 ; genPlus
                            448 ; genPlusIncr
   0126 11 31 00            449 	ld	de,#_SpriteData + 0 + 49
                            450 ; genAssign (pointer)
   0129 3E 1E               451 	ld	a,#0x1E
   012B 12                  452 	ld	(de),a
                            453 ; genPlus
                            454 ; genPlusIncr
   012C 11 32 00            455 	ld	de,#_SpriteData + 0 + 50
                            456 ; genAssign (pointer)
   012F 3E FF               457 	ld	a,#0xFF
   0131 12                  458 	ld	(de),a
                            459 ; genPlus
                            460 ; genPlusIncr
   0132 11 33 00            461 	ld	de,#_SpriteData + 0 + 51
                            462 ; genAssign (pointer)
   0135 3E 8D               463 	ld	a,#0x8D
   0137 12                  464 	ld	(de),a
                            465 ; genPlus
                            466 ; genPlusIncr
   0138 11 34 00            467 	ld	de,#_SpriteData + 0 + 52
                            468 ; genAssign (pointer)
   013B 3E FF               469 	ld	a,#0xFF
   013D 12                  470 	ld	(de),a
                            471 ; genPlus
                            472 ; genPlusIncr
   013E 11 35 00            473 	ld	de,#_SpriteData + 0 + 53
                            474 ; genAssign (pointer)
   0141 3E 05               475 	ld	a,#0x05
   0143 12                  476 	ld	(de),a
                            477 ; genPlus
                            478 ; genPlusIncr
   0144 11 36 00            479 	ld	de,#_SpriteData + 0 + 54
                            480 ; genAssign (pointer)
   0147 3E FF               481 	ld	a,#0xFF
   0149 12                  482 	ld	(de),a
                            483 ; genPlus
                            484 ; genPlusIncr
   014A 11 37 00            485 	ld	de,#_SpriteData + 0 + 55
                            486 ; genAssign (pointer)
   014D 3E A1               487 	ld	a,#0xA1
   014F 12                  488 	ld	(de),a
                            489 ; genPlus
                            490 ; genPlusIncr
   0150 11 38 00            491 	ld	de,#_SpriteData + 0 + 56
                            492 ; genAssign (pointer)
   0153 3E FF               493 	ld	a,#0xFF
   0155 12                  494 	ld	(de),a
                            495 ; genPlus
                            496 ; genPlusIncr
   0156 11 39 00            497 	ld	de,#_SpriteData + 0 + 57
                            498 ; genAssign (pointer)
   0159 3E 31               499 	ld	a,#0x31
   015B 12                  500 	ld	(de),a
                            501 ; genPlus
                            502 ; genPlusIncr
   015C 11 3A 00            503 	ld	de,#_SpriteData + 0 + 58
                            504 ; genAssign (pointer)
   015F 3E EF               505 	ld	a,#0xEF
   0161 12                  506 	ld	(de),a
                            507 ; genPlus
                            508 ; genPlusIncr
   0162 11 3B 00            509 	ld	de,#_SpriteData + 0 + 59
                            510 ; genAssign (pointer)
   0165 3E 79               511 	ld	a,#0x79
   0167 12                  512 	ld	(de),a
                            513 ; genPlus
                            514 ; genPlusIncr
   0168 11 3C 00            515 	ld	de,#_SpriteData + 0 + 60
                            516 ; genAssign (pointer)
   016B 3E FF               517 	ld	a,#0xFF
   016D 12                  518 	ld	(de),a
                            519 ; genPlus
                            520 ; genPlusIncr
   016E 11 3D 00            521 	ld	de,#_SpriteData + 0 + 61
                            522 ; genAssign (pointer)
   0171 3E FD               523 	ld	a,#0xFD
   0173 12                  524 	ld	(de),a
                            525 ; genPlus
                            526 ; genPlusIncr
   0174 11 3E 00            527 	ld	de,#_SpriteData + 0 + 62
                            528 ; genAssign (pointer)
   0177 3E 06               529 	ld	a,#0x06
   0179 12                  530 	ld	(de),a
                            531 ; genPlus
                            532 ; genPlusIncr
   017A 11 3F 00            533 	ld	de,#_SpriteData + 0 + 63
                            534 ; genAssign (pointer)
   017D 3E 06               535 	ld	a,#0x06
   017F 12                  536 	ld	(de),a
                            537 ; genPlus
                            538 ; genPlusIncr
   0180 11 40 00            539 	ld	de,#_SpriteData + 0 + 64
                            540 ; genAssign (pointer)
   0183 3E 60               541 	ld	a,#0x60
   0185 12                  542 	ld	(de),a
                            543 ; genPlus
                            544 ; genPlusIncr
   0186 11 41 00            545 	ld	de,#_SpriteData + 0 + 65
                            546 ; genAssign (pointer)
   0189 3E 60               547 	ld	a,#0x60
   018B 12                  548 	ld	(de),a
                            549 ; genPlus
                            550 ; genPlusIncr
   018C 11 42 00            551 	ld	de,#_SpriteData + 0 + 66
                            552 ; genAssign (pointer)
   018F 3E FF               553 	ld	a,#0xFF
   0191 12                  554 	ld	(de),a
                            555 ; genPlus
                            556 ; genPlusIncr
   0192 11 43 00            557 	ld	de,#_SpriteData + 0 + 67
                            558 ; genAssign (pointer)
   0195 3E BF               559 	ld	a,#0xBF
   0197 12                  560 	ld	(de),a
                            561 ; genPlus
                            562 ; genPlusIncr
   0198 11 44 00            563 	ld	de,#_SpriteData + 0 + 68
                            564 ; genAssign (pointer)
   019B 3E F7               565 	ld	a,#0xF7
   019D 12                  566 	ld	(de),a
                            567 ; genPlus
                            568 ; genPlusIncr
   019E 11 45 00            569 	ld	de,#_SpriteData + 0 + 69
                            570 ; genAssign (pointer)
   01A1 3E 9E               571 	ld	a,#0x9E
   01A3 12                  572 	ld	(de),a
                            573 ; genPlus
                            574 ; genPlusIncr
   01A4 11 46 00            575 	ld	de,#_SpriteData + 0 + 70
                            576 ; genAssign (pointer)
   01A7 3E FF               577 	ld	a,#0xFF
   01A9 12                  578 	ld	(de),a
                            579 ; genPlus
                            580 ; genPlusIncr
   01AA 11 47 00            581 	ld	de,#_SpriteData + 0 + 71
                            582 ; genAssign (pointer)
   01AD 3E 8C               583 	ld	a,#0x8C
   01AF 12                  584 	ld	(de),a
                            585 ; genPlus
                            586 ; genPlusIncr
   01B0 11 48 00            587 	ld	de,#_SpriteData + 0 + 72
                            588 ; genAssign (pointer)
   01B3 3E FF               589 	ld	a,#0xFF
   01B5 12                  590 	ld	(de),a
                            591 ; genPlus
                            592 ; genPlusIncr
   01B6 11 49 00            593 	ld	de,#_SpriteData + 0 + 73
                            594 ; genAssign (pointer)
   01B9 3E 85               595 	ld	a,#0x85
   01BB 12                  596 	ld	(de),a
                            597 ; genPlus
                            598 ; genPlusIncr
   01BC 11 4A 00            599 	ld	de,#_SpriteData + 0 + 74
                            600 ; genAssign (pointer)
   01BF 3E FF               601 	ld	a,#0xFF
   01C1 12                  602 	ld	(de),a
                            603 ; genPlus
                            604 ; genPlusIncr
   01C2 11 4B 00            605 	ld	de,#_SpriteData + 0 + 75
                            606 ; genAssign (pointer)
   01C5 3E A0               607 	ld	a,#0xA0
   01C7 12                  608 	ld	(de),a
                            609 ; genPlus
                            610 ; genPlusIncr
   01C8 11 4C 00            611 	ld	de,#_SpriteData + 0 + 76
                            612 ; genAssign (pointer)
   01CB 3E FF               613 	ld	a,#0xFF
   01CD 12                  614 	ld	(de),a
                            615 ; genPlus
                            616 ; genPlusIncr
   01CE 11 4D 00            617 	ld	de,#_SpriteData + 0 + 77
                            618 ; genAssign (pointer)
   01D1 3E B1               619 	ld	a,#0xB1
   01D3 12                  620 	ld	(de),a
                            621 ; genPlus
                            622 ; genPlusIncr
   01D4 11 4E 00            623 	ld	de,#_SpriteData + 0 + 78
                            624 ; genAssign (pointer)
   01D7 3E 7F               625 	ld	a,#0x7F
   01D9 12                  626 	ld	(de),a
                            627 ; genPlus
                            628 ; genPlusIncr
   01DA 11 4F 00            629 	ld	de,#_SpriteData + 0 + 79
                            630 ; genAssign (pointer)
   01DD 3E 78               631 	ld	a,#0x78
   01DF 12                  632 	ld	(de),a
                            633 ; genPlus
                            634 ; genPlusIncr
   01E0 11 50 00            635 	ld	de,#_SpriteData + 0 + 80
                            636 ; genAssign (pointer)
   01E3 3E 06               637 	ld	a,#0x06
   01E5 12                  638 	ld	(de),a
                            639 ; genPlus
                            640 ; genPlusIncr
   01E6 11 51 00            641 	ld	de,#_SpriteData + 0 + 81
                            642 ; genAssign (pointer)
   01E9 3E 06               643 	ld	a,#0x06
   01EB 12                  644 	ld	(de),a
                            645 ; genPlus
                            646 ; genPlusIncr
   01EC 11 52 00            647 	ld	de,#_SpriteData + 0 + 82
                            648 ; genAssign (pointer)
   01EF 3E FF               649 	ld	a,#0xFF
   01F1 12                  650 	ld	(de),a
                            651 ; genPlus
                            652 ; genPlusIncr
   01F2 11 53 00            653 	ld	de,#_SpriteData + 0 + 83
                            654 ; genAssign (pointer)
   01F5 3E FD               655 	ld	a,#0xFD
   01F7 12                  656 	ld	(de),a
                            657 ; genPlus
                            658 ; genPlusIncr
   01F8 11 54 00            659 	ld	de,#_SpriteData + 0 + 84
                            660 ; genAssign (pointer)
   01FB 3E EF               661 	ld	a,#0xEF
   01FD 12                  662 	ld	(de),a
                            663 ; genPlus
                            664 ; genPlusIncr
   01FE 11 55 00            665 	ld	de,#_SpriteData + 0 + 85
                            666 ; genAssign (pointer)
   0201 3E 79               667 	ld	a,#0x79
   0203 12                  668 	ld	(de),a
                            669 ; genPlus
                            670 ; genPlusIncr
   0204 11 56 00            671 	ld	de,#_SpriteData + 0 + 86
                            672 ; genAssign (pointer)
   0207 3E FF               673 	ld	a,#0xFF
   0209 12                  674 	ld	(de),a
                            675 ; genPlus
                            676 ; genPlusIncr
   020A 11 57 00            677 	ld	de,#_SpriteData + 0 + 87
                            678 ; genAssign (pointer)
   020D 3E 31               679 	ld	a,#0x31
   020F 12                  680 	ld	(de),a
                            681 ; genPlus
                            682 ; genPlusIncr
   0210 11 58 00            683 	ld	de,#_SpriteData + 0 + 88
                            684 ; genAssign (pointer)
   0213 3E FF               685 	ld	a,#0xFF
   0215 12                  686 	ld	(de),a
                            687 ; genPlus
                            688 ; genPlusIncr
   0216 11 59 00            689 	ld	de,#_SpriteData + 0 + 89
                            690 ; genAssign (pointer)
   0219 3E A1               691 	ld	a,#0xA1
   021B 12                  692 	ld	(de),a
                            693 ; genPlus
                            694 ; genPlusIncr
   021C 11 5A 00            695 	ld	de,#_SpriteData + 0 + 90
                            696 ; genAssign (pointer)
   021F 3E FF               697 	ld	a,#0xFF
   0221 12                  698 	ld	(de),a
                            699 ; genPlus
                            700 ; genPlusIncr
   0222 11 5B 00            701 	ld	de,#_SpriteData + 0 + 91
                            702 ; genAssign (pointer)
   0225 3E 05               703 	ld	a,#0x05
   0227 12                  704 	ld	(de),a
                            705 ; genPlus
                            706 ; genPlusIncr
   0228 11 5C 00            707 	ld	de,#_SpriteData + 0 + 92
                            708 ; genAssign (pointer)
   022B 3E FF               709 	ld	a,#0xFF
   022D 12                  710 	ld	(de),a
                            711 ; genPlus
                            712 ; genPlusIncr
   022E 11 5D 00            713 	ld	de,#_SpriteData + 0 + 93
                            714 ; genAssign (pointer)
   0231 3E 8D               715 	ld	a,#0x8D
   0233 12                  716 	ld	(de),a
                            717 ; genPlus
                            718 ; genPlusIncr
   0234 11 5E 00            719 	ld	de,#_SpriteData + 0 + 94
                            720 ; genAssign (pointer)
   0237 3E FE               721 	ld	a,#0xFE
   0239 12                  722 	ld	(de),a
                            723 ; genPlus
                            724 ; genPlusIncr
   023A 11 5F 00            725 	ld	de,#_SpriteData + 0 + 95
                            726 ; genAssign (pointer)
   023D 3E 1E               727 	ld	a,#0x1E
   023F 12                  728 	ld	(de),a
                            729 ; genPlus
                            730 ; genPlusIncr
   0240 11 60 00            731 	ld	de,#_SpriteData + 0 + 96
                            732 ; genAssign (pointer)
   0243 3E 17               733 	ld	a,#0x17
   0245 12                  734 	ld	(de),a
                            735 ; genPlus
                            736 ; genPlusIncr
   0246 11 61 00            737 	ld	de,#_SpriteData + 0 + 97
                            738 ; genAssign (pointer)
   0249 3E 1D               739 	ld	a,#0x1D
   024B 12                  740 	ld	(de),a
                            741 ; genPlus
                            742 ; genPlusIncr
   024C 11 62 00            743 	ld	de,#_SpriteData + 0 + 98
                            744 ; genAssign (pointer)
   024F 3E 17               745 	ld	a,#0x17
   0251 12                  746 	ld	(de),a
                            747 ; genPlus
                            748 ; genPlusIncr
   0252 11 63 00            749 	ld	de,#_SpriteData + 0 + 99
                            750 ; genAssign (pointer)
   0255 3E 1C               751 	ld	a,#0x1C
   0257 12                  752 	ld	(de),a
                            753 ; genPlus
                            754 ; genPlusIncr
   0258 11 64 00            755 	ld	de,#_SpriteData + 0 + 100
                            756 ; genAssign (pointer)
   025B 3E 1F               757 	ld	a,#0x1F
   025D 12                  758 	ld	(de),a
                            759 ; genPlus
                            760 ; genPlusIncr
   025E 11 65 00            761 	ld	de,#_SpriteData + 0 + 101
                            762 ; genAssign (pointer)
   0261 3E 1D               763 	ld	a,#0x1D
   0263 12                  764 	ld	(de),a
                            765 ; genPlus
                            766 ; genPlusIncr
   0264 11 66 00            767 	ld	de,#_SpriteData + 0 + 102
                            768 ; genAssign (pointer)
   0267 3E 07               769 	ld	a,#0x07
   0269 12                  770 	ld	(de),a
                            771 ; genPlus
                            772 ; genPlusIncr
   026A 11 67 00            773 	ld	de,#_SpriteData + 0 + 103
                            774 ; genAssign (pointer)
   026D 3E 04               775 	ld	a,#0x04
   026F 12                  776 	ld	(de),a
                            777 ; genPlus
                            778 ; genPlusIncr
   0270 11 68 00            779 	ld	de,#_SpriteData + 0 + 104
                            780 ; genAssign (pointer)
   0273 3E 03               781 	ld	a,#0x03
   0275 12                  782 	ld	(de),a
                            783 ; genPlus
                            784 ; genPlusIncr
   0276 11 69 00            785 	ld	de,#_SpriteData + 0 + 105
                            786 ; genAssign (pointer)
   0279 3E 02               787 	ld	a,#0x02
   027B 12                  788 	ld	(de),a
                            789 ; genPlus
                            790 ; genPlusIncr
   027C 11 6A 00            791 	ld	de,#_SpriteData + 0 + 106
                            792 ; genAssign (pointer)
   027F 3E 03               793 	ld	a,#0x03
   0281 12                  794 	ld	(de),a
                            795 ; genPlus
                            796 ; genPlusIncr
   0282 11 6B 00            797 	ld	de,#_SpriteData + 0 + 107
                            798 ; genAssign (pointer)
   0285 3E 02               799 	ld	a,#0x02
   0287 12                  800 	ld	(de),a
                            801 ; genPlus
                            802 ; genPlusIncr
   0288 11 6C 00            803 	ld	de,#_SpriteData + 0 + 108
                            804 ; genAssign (pointer)
   028B 3E 03               805 	ld	a,#0x03
   028D 12                  806 	ld	(de),a
                            807 ; genPlus
                            808 ; genPlusIncr
   028E 11 6D 00            809 	ld	de,#_SpriteData + 0 + 109
                            810 ; genAssign (pointer)
   0291 3E 02               811 	ld	a,#0x02
   0293 12                  812 	ld	(de),a
                            813 ; genPlus
                            814 ; genPlusIncr
   0294 11 6E 00            815 	ld	de,#_SpriteData + 0 + 110
                            816 ; genAssign (pointer)
   0297 3E 01               817 	ld	a,#0x01
   0299 12                  818 	ld	(de),a
                            819 ; genPlus
                            820 ; genPlusIncr
   029A 11 6F 00            821 	ld	de,#_SpriteData + 0 + 111
                            822 ; genAssign (pointer)
   029D 3E 01               823 	ld	a,#0x01
   029F 12                  824 	ld	(de),a
                            825 ; genPlus
                            826 ; genPlusIncr
   02A0 11 70 00            827 	ld	de,#_SpriteData + 0 + 112
                            828 ; genAssign (pointer)
   02A3 3E E8               829 	ld	a,#0xE8
   02A5 12                  830 	ld	(de),a
                            831 ; genPlus
                            832 ; genPlusIncr
   02A6 11 71 00            833 	ld	de,#_SpriteData + 0 + 113
                            834 ; genAssign (pointer)
   02A9 3E B8               835 	ld	a,#0xB8
   02AB 12                  836 	ld	(de),a
                            837 ; genPlus
                            838 ; genPlusIncr
   02AC 11 72 00            839 	ld	de,#_SpriteData + 0 + 114
                            840 ; genAssign (pointer)
   02AF 3E E8               841 	ld	a,#0xE8
   02B1 12                  842 	ld	(de),a
                            843 ; genPlus
                            844 ; genPlusIncr
   02B2 11 73 00            845 	ld	de,#_SpriteData + 0 + 115
                            846 ; genAssign (pointer)
   02B5 3E 38               847 	ld	a,#0x38
   02B7 12                  848 	ld	(de),a
                            849 ; genPlus
                            850 ; genPlusIncr
   02B8 11 74 00            851 	ld	de,#_SpriteData + 0 + 116
                            852 ; genAssign (pointer)
   02BB 3E F8               853 	ld	a,#0xF8
   02BD 12                  854 	ld	(de),a
                            855 ; genPlus
                            856 ; genPlusIncr
   02BE 11 75 00            857 	ld	de,#_SpriteData + 0 + 117
                            858 ; genAssign (pointer)
   02C1 3E B8               859 	ld	a,#0xB8
   02C3 12                  860 	ld	(de),a
                            861 ; genPlus
                            862 ; genPlusIncr
   02C4 11 76 00            863 	ld	de,#_SpriteData + 0 + 118
                            864 ; genAssign (pointer)
   02C7 3E E0               865 	ld	a,#0xE0
   02C9 12                  866 	ld	(de),a
                            867 ; genPlus
                            868 ; genPlusIncr
   02CA 11 77 00            869 	ld	de,#_SpriteData + 0 + 119
                            870 ; genAssign (pointer)
   02CD 3E 20               871 	ld	a,#0x20
   02CF 12                  872 	ld	(de),a
                            873 ; genPlus
                            874 ; genPlusIncr
   02D0 11 78 00            875 	ld	de,#_SpriteData + 0 + 120
                            876 ; genAssign (pointer)
   02D3 3E C0               877 	ld	a,#0xC0
   02D5 12                  878 	ld	(de),a
                            879 ; genPlus
                            880 ; genPlusIncr
   02D6 11 79 00            881 	ld	de,#_SpriteData + 0 + 121
                            882 ; genAssign (pointer)
   02D9 3E 40               883 	ld	a,#0x40
   02DB 12                  884 	ld	(de),a
                            885 ; genPlus
                            886 ; genPlusIncr
   02DC 11 7A 00            887 	ld	de,#_SpriteData + 0 + 122
                            888 ; genAssign (pointer)
   02DF 3E C0               889 	ld	a,#0xC0
   02E1 12                  890 	ld	(de),a
                            891 ; genPlus
                            892 ; genPlusIncr
   02E2 11 7B 00            893 	ld	de,#_SpriteData + 0 + 123
                            894 ; genAssign (pointer)
   02E5 3E 40               895 	ld	a,#0x40
   02E7 12                  896 	ld	(de),a
                            897 ; genPlus
                            898 ; genPlusIncr
   02E8 11 7C 00            899 	ld	de,#_SpriteData + 0 + 124
                            900 ; genAssign (pointer)
   02EB 3E C0               901 	ld	a,#0xC0
   02ED 12                  902 	ld	(de),a
                            903 ; genPlus
                            904 ; genPlusIncr
   02EE 11 7D 00            905 	ld	de,#_SpriteData + 0 + 125
                            906 ; genAssign (pointer)
   02F1 3E 40               907 	ld	a,#0x40
   02F3 12                  908 	ld	(de),a
                            909 ; genPlus
                            910 ; genPlusIncr
   02F4 11 7E 00            911 	ld	de,#_SpriteData + 0 + 126
                            912 ; genAssign (pointer)
   02F7 3E 80               913 	ld	a,#0x80
   02F9 12                  914 	ld	(de),a
                            915 ; genPlus
                            916 ; genPlusIncr
   02FA 11 7F 00            917 	ld	de,#_SpriteData + 0 + 127
                            918 ; genAssign (pointer)
   02FD 3E 80               919 	ld	a,#0x80
   02FF 12                  920 	ld	(de),a
                            921 ; genPlus
                            922 ; genPlusIncr
   0300 11 80 00            923 	ld	de,#_SpriteData + 0 + 128
                            924 ; genAssign (pointer)
   0303 3E 7E               925 	ld	a,#0x7E
   0305 12                  926 	ld	(de),a
                            927 ; genPlus
                            928 ; genPlusIncr
   0306 11 81 00            929 	ld	de,#_SpriteData + 0 + 129
                            930 ; genAssign (pointer)
   0309 3E 7E               931 	ld	a,#0x7E
   030B 12                  932 	ld	(de),a
                            933 ; genPlus
                            934 ; genPlusIncr
   030C 11 82 00            935 	ld	de,#_SpriteData + 0 + 130
                            936 ; genAssign (pointer)
   030F 3E FF               937 	ld	a,#0xFF
   0311 12                  938 	ld	(de),a
                            939 ; genPlus
                            940 ; genPlusIncr
   0312 11 83 00            941 	ld	de,#_SpriteData + 0 + 131
                            942 ; genAssign (pointer)
   0315 3E 81               943 	ld	a,#0x81
   0317 12                  944 	ld	(de),a
                            945 ; genPlus
                            946 ; genPlusIncr
   0318 11 84 00            947 	ld	de,#_SpriteData + 0 + 132
                            948 ; genAssign (pointer)
   031B 3E FF               949 	ld	a,#0xFF
   031D 12                  950 	ld	(de),a
                            951 ; genPlus
                            952 ; genPlusIncr
   031E 11 85 00            953 	ld	de,#_SpriteData + 0 + 133
                            954 ; genAssign (pointer)
   0321 3E C7               955 	ld	a,#0xC7
   0323 12                  956 	ld	(de),a
                            957 ; genPlus
                            958 ; genPlusIncr
   0324 11 86 00            959 	ld	de,#_SpriteData + 0 + 134
                            960 ; genAssign (pointer)
   0327 3E 7F               961 	ld	a,#0x7F
   0329 12                  962 	ld	(de),a
                            963 ; genPlus
                            964 ; genPlusIncr
   032A 11 87 00            965 	ld	de,#_SpriteData + 0 + 135
                            966 ; genAssign (pointer)
   032D 3E 63               967 	ld	a,#0x63
   032F 12                  968 	ld	(de),a
                            969 ; genPlus
                            970 ; genPlusIncr
   0330 11 88 00            971 	ld	de,#_SpriteData + 0 + 136
                            972 ; genAssign (pointer)
   0333 3E 5F               973 	ld	a,#0x5F
   0335 12                  974 	ld	(de),a
                            975 ; genPlus
                            976 ; genPlusIncr
   0336 11 89 00            977 	ld	de,#_SpriteData + 0 + 137
                            978 ; genAssign (pointer)
   0339 3E 71               979 	ld	a,#0x71
   033B 12                  980 	ld	(de),a
                            981 ; genPlus
                            982 ; genPlusIncr
   033C 11 8A 00            983 	ld	de,#_SpriteData + 0 + 138
                            984 ; genAssign (pointer)
   033F 3E 7F               985 	ld	a,#0x7F
   0341 12                  986 	ld	(de),a
                            987 ; genPlus
                            988 ; genPlusIncr
   0342 11 8B 00            989 	ld	de,#_SpriteData + 0 + 139
                            990 ; genAssign (pointer)
   0345 3E 78               991 	ld	a,#0x78
   0347 12                  992 	ld	(de),a
                            993 ; genPlus
                            994 ; genPlusIncr
   0348 11 8C 00            995 	ld	de,#_SpriteData + 0 + 140
                            996 ; genAssign (pointer)
   034B 3E 7F               997 	ld	a,#0x7F
   034D 12                  998 	ld	(de),a
                            999 ; genPlus
                           1000 ; genPlusIncr
   034E 11 8D 00           1001 	ld	de,#_SpriteData + 0 + 141
                           1002 ; genAssign (pointer)
   0351 3E 60              1003 	ld	a,#0x60
   0353 12                 1004 	ld	(de),a
                           1005 ; genPlus
                           1006 ; genPlusIncr
   0354 11 8E 00           1007 	ld	de,#_SpriteData + 0 + 142
                           1008 ; genAssign (pointer)
   0357 3E 7F              1009 	ld	a,#0x7F
   0359 12                 1010 	ld	(de),a
                           1011 ; genPlus
                           1012 ; genPlusIncr
   035A 11 8F 00           1013 	ld	de,#_SpriteData + 0 + 143
                           1014 ; genAssign (pointer)
   035D 3E 4A              1015 	ld	a,#0x4A
   035F 12                 1016 	ld	(de),a
                           1017 ; genPlus
                           1018 ; genPlusIncr
   0360 11 90 00           1019 	ld	de,#_SpriteData + 0 + 144
                           1020 ; genAssign (pointer)
   0363 3E 00              1021 	ld	a,#0x00
   0365 12                 1022 	ld	(de),a
                           1023 ; genPlus
                           1024 ; genPlusIncr
   0366 11 91 00           1025 	ld	de,#_SpriteData + 0 + 145
                           1026 ; genAssign (pointer)
   0369 3E 00              1027 	ld	a,#0x00
   036B 12                 1028 	ld	(de),a
                           1029 ; genPlus
                           1030 ; genPlusIncr
   036C 11 92 00           1031 	ld	de,#_SpriteData + 0 + 146
                           1032 ; genAssign (pointer)
   036F 3E 00              1033 	ld	a,#0x00
   0371 12                 1034 	ld	(de),a
                           1035 ; genPlus
                           1036 ; genPlusIncr
   0372 11 93 00           1037 	ld	de,#_SpriteData + 0 + 147
                           1038 ; genAssign (pointer)
   0375 3E 00              1039 	ld	a,#0x00
   0377 12                 1040 	ld	(de),a
                           1041 ; genPlus
                           1042 ; genPlusIncr
   0378 11 94 00           1043 	ld	de,#_SpriteData + 0 + 148
                           1044 ; genAssign (pointer)
   037B 3E 00              1045 	ld	a,#0x00
   037D 12                 1046 	ld	(de),a
                           1047 ; genPlus
                           1048 ; genPlusIncr
   037E 11 95 00           1049 	ld	de,#_SpriteData + 0 + 149
                           1050 ; genAssign (pointer)
   0381 3E 00              1051 	ld	a,#0x00
   0383 12                 1052 	ld	(de),a
                           1053 ; genPlus
                           1054 ; genPlusIncr
   0384 11 96 00           1055 	ld	de,#_SpriteData + 0 + 150
                           1056 ; genAssign (pointer)
   0387 3E E0              1057 	ld	a,#0xE0
   0389 12                 1058 	ld	(de),a
                           1059 ; genPlus
                           1060 ; genPlusIncr
   038A 11 97 00           1061 	ld	de,#_SpriteData + 0 + 151
                           1062 ; genAssign (pointer)
   038D 3E E0              1063 	ld	a,#0xE0
   038F 12                 1064 	ld	(de),a
                           1065 ; genPlus
                           1066 ; genPlusIncr
   0390 11 98 00           1067 	ld	de,#_SpriteData + 0 + 152
                           1068 ; genAssign (pointer)
   0393 3E 20              1069 	ld	a,#0x20
   0395 12                 1070 	ld	(de),a
                           1071 ; genPlus
                           1072 ; genPlusIncr
   0396 11 99 00           1073 	ld	de,#_SpriteData + 0 + 153
                           1074 ; genAssign (pointer)
   0399 3E E0              1075 	ld	a,#0xE0
   039B 12                 1076 	ld	(de),a
                           1077 ; genPlus
                           1078 ; genPlusIncr
   039C 11 9A 00           1079 	ld	de,#_SpriteData + 0 + 154
                           1080 ; genAssign (pointer)
   039F 3E F0              1081 	ld	a,#0xF0
   03A1 12                 1082 	ld	(de),a
                           1083 ; genPlus
                           1084 ; genPlusIncr
   03A2 11 9B 00           1085 	ld	de,#_SpriteData + 0 + 155
                           1086 ; genAssign (pointer)
   03A5 3E F0              1087 	ld	a,#0xF0
   03A7 12                 1088 	ld	(de),a
                           1089 ; genPlus
                           1090 ; genPlusIncr
   03A8 11 9C 00           1091 	ld	de,#_SpriteData + 0 + 156
                           1092 ; genAssign (pointer)
   03AB 3E FE              1093 	ld	a,#0xFE
   03AD 12                 1094 	ld	(de),a
                           1095 ; genPlus
                           1096 ; genPlusIncr
   03AE 11 9D 00           1097 	ld	de,#_SpriteData + 0 + 157
                           1098 ; genAssign (pointer)
   03B1 3E 0E              1099 	ld	a,#0x0E
   03B3 12                 1100 	ld	(de),a
                           1101 ; genPlus
                           1102 ; genPlusIncr
   03B4 11 9E 00           1103 	ld	de,#_SpriteData + 0 + 158
                           1104 ; genAssign (pointer)
   03B7 3E FF              1105 	ld	a,#0xFF
   03B9 12                 1106 	ld	(de),a
                           1107 ; genPlus
                           1108 ; genPlusIncr
   03BA 11 9F 00           1109 	ld	de,#_SpriteData + 0 + 159
                           1110 ; genAssign (pointer)
   03BD 3E A1              1111 	ld	a,#0xA1
   03BF 12                 1112 	ld	(de),a
                           1113 ; genPlus
                           1114 ; genPlusIncr
   03C0 11 A0 00           1115 	ld	de,#_SpriteData + 0 + 160
                           1116 ; genAssign (pointer)
   03C3 3E 7F              1117 	ld	a,#0x7F
   03C5 12                 1118 	ld	(de),a
                           1119 ; genPlus
                           1120 ; genPlusIncr
   03C6 11 A1 00           1121 	ld	de,#_SpriteData + 0 + 161
                           1122 ; genAssign (pointer)
   03C9 3E 4A              1123 	ld	a,#0x4A
   03CB 12                 1124 	ld	(de),a
                           1125 ; genPlus
                           1126 ; genPlusIncr
   03CC 11 A2 00           1127 	ld	de,#_SpriteData + 0 + 162
                           1128 ; genAssign (pointer)
   03CF 3E 7F              1129 	ld	a,#0x7F
   03D1 12                 1130 	ld	(de),a
                           1131 ; genPlus
                           1132 ; genPlusIncr
   03D2 11 A3 00           1133 	ld	de,#_SpriteData + 0 + 163
                           1134 ; genAssign (pointer)
   03D5 3E 60              1135 	ld	a,#0x60
   03D7 12                 1136 	ld	(de),a
                           1137 ; genPlus
                           1138 ; genPlusIncr
   03D8 11 A4 00           1139 	ld	de,#_SpriteData + 0 + 164
                           1140 ; genAssign (pointer)
   03DB 3E 7F              1141 	ld	a,#0x7F
   03DD 12                 1142 	ld	(de),a
                           1143 ; genPlus
                           1144 ; genPlusIncr
   03DE 11 A5 00           1145 	ld	de,#_SpriteData + 0 + 165
                           1146 ; genAssign (pointer)
   03E1 3E 78              1147 	ld	a,#0x78
   03E3 12                 1148 	ld	(de),a
                           1149 ; genPlus
                           1150 ; genPlusIncr
   03E4 11 A6 00           1151 	ld	de,#_SpriteData + 0 + 166
                           1152 ; genAssign (pointer)
   03E7 3E 5F              1153 	ld	a,#0x5F
   03E9 12                 1154 	ld	(de),a
                           1155 ; genPlus
                           1156 ; genPlusIncr
   03EA 11 A7 00           1157 	ld	de,#_SpriteData + 0 + 167
                           1158 ; genAssign (pointer)
   03ED 3E 71              1159 	ld	a,#0x71
   03EF 12                 1160 	ld	(de),a
                           1161 ; genPlus
                           1162 ; genPlusIncr
   03F0 11 A8 00           1163 	ld	de,#_SpriteData + 0 + 168
                           1164 ; genAssign (pointer)
   03F3 3E 7F              1165 	ld	a,#0x7F
   03F5 12                 1166 	ld	(de),a
                           1167 ; genPlus
                           1168 ; genPlusIncr
   03F6 11 A9 00           1169 	ld	de,#_SpriteData + 0 + 169
                           1170 ; genAssign (pointer)
   03F9 3E 63              1171 	ld	a,#0x63
   03FB 12                 1172 	ld	(de),a
                           1173 ; genPlus
                           1174 ; genPlusIncr
   03FC 11 AA 00           1175 	ld	de,#_SpriteData + 0 + 170
                           1176 ; genAssign (pointer)
   03FF 3E FF              1177 	ld	a,#0xFF
   0401 12                 1178 	ld	(de),a
                           1179 ; genPlus
                           1180 ; genPlusIncr
   0402 11 AB 00           1181 	ld	de,#_SpriteData + 0 + 171
                           1182 ; genAssign (pointer)
   0405 3E C7              1183 	ld	a,#0xC7
   0407 12                 1184 	ld	(de),a
                           1185 ; genPlus
                           1186 ; genPlusIncr
   0408 11 AC 00           1187 	ld	de,#_SpriteData + 0 + 172
                           1188 ; genAssign (pointer)
   040B 3E FF              1189 	ld	a,#0xFF
   040D 12                 1190 	ld	(de),a
                           1191 ; genPlus
                           1192 ; genPlusIncr
   040E 11 AD 00           1193 	ld	de,#_SpriteData + 0 + 173
                           1194 ; genAssign (pointer)
   0411 3E 81              1195 	ld	a,#0x81
   0413 12                 1196 	ld	(de),a
                           1197 ; genPlus
                           1198 ; genPlusIncr
   0414 11 AE 00           1199 	ld	de,#_SpriteData + 0 + 174
                           1200 ; genAssign (pointer)
   0417 3E 7E              1201 	ld	a,#0x7E
   0419 12                 1202 	ld	(de),a
                           1203 ; genPlus
                           1204 ; genPlusIncr
   041A 11 AF 00           1205 	ld	de,#_SpriteData + 0 + 175
                           1206 ; genAssign (pointer)
   041D 3E 7E              1207 	ld	a,#0x7E
   041F 12                 1208 	ld	(de),a
                           1209 ; genPlus
                           1210 ; genPlusIncr
   0420 11 B0 00           1211 	ld	de,#_SpriteData + 0 + 176
                           1212 ; genAssign (pointer)
   0423 3E FF              1213 	ld	a,#0xFF
   0425 12                 1214 	ld	(de),a
                           1215 ; genPlus
                           1216 ; genPlusIncr
   0426 11 B1 00           1217 	ld	de,#_SpriteData + 0 + 177
                           1218 ; genAssign (pointer)
   0429 3E A1              1219 	ld	a,#0xA1
   042B 12                 1220 	ld	(de),a
                           1221 ; genPlus
                           1222 ; genPlusIncr
   042C 11 B2 00           1223 	ld	de,#_SpriteData + 0 + 178
                           1224 ; genAssign (pointer)
   042F 3E FE              1225 	ld	a,#0xFE
   0431 12                 1226 	ld	(de),a
                           1227 ; genPlus
                           1228 ; genPlusIncr
   0432 11 B3 00           1229 	ld	de,#_SpriteData + 0 + 179
                           1230 ; genAssign (pointer)
   0435 3E 0E              1231 	ld	a,#0x0E
   0437 12                 1232 	ld	(de),a
                           1233 ; genPlus
                           1234 ; genPlusIncr
   0438 11 B4 00           1235 	ld	de,#_SpriteData + 0 + 180
                           1236 ; genAssign (pointer)
   043B 3E F0              1237 	ld	a,#0xF0
   043D 12                 1238 	ld	(de),a
                           1239 ; genPlus
                           1240 ; genPlusIncr
   043E 11 B5 00           1241 	ld	de,#_SpriteData + 0 + 181
                           1242 ; genAssign (pointer)
   0441 3E F0              1243 	ld	a,#0xF0
   0443 12                 1244 	ld	(de),a
                           1245 ; genPlus
                           1246 ; genPlusIncr
   0444 11 B6 00           1247 	ld	de,#_SpriteData + 0 + 182
                           1248 ; genAssign (pointer)
   0447 3E 20              1249 	ld	a,#0x20
   0449 12                 1250 	ld	(de),a
                           1251 ; genPlus
                           1252 ; genPlusIncr
   044A 11 B7 00           1253 	ld	de,#_SpriteData + 0 + 183
                           1254 ; genAssign (pointer)
   044D 3E E0              1255 	ld	a,#0xE0
   044F 12                 1256 	ld	(de),a
                           1257 ; genPlus
                           1258 ; genPlusIncr
   0450 11 B8 00           1259 	ld	de,#_SpriteData + 0 + 184
                           1260 ; genAssign (pointer)
   0453 3E E0              1261 	ld	a,#0xE0
   0455 12                 1262 	ld	(de),a
                           1263 ; genPlus
                           1264 ; genPlusIncr
   0456 11 B9 00           1265 	ld	de,#_SpriteData + 0 + 185
                           1266 ; genAssign (pointer)
   0459 3E E0              1267 	ld	a,#0xE0
   045B 12                 1268 	ld	(de),a
                           1269 ; genPlus
                           1270 ; genPlusIncr
   045C 11 BA 00           1271 	ld	de,#_SpriteData + 0 + 186
                           1272 ; genAssign (pointer)
   045F 3E 00              1273 	ld	a,#0x00
   0461 12                 1274 	ld	(de),a
                           1275 ; genPlus
                           1276 ; genPlusIncr
   0462 11 BB 00           1277 	ld	de,#_SpriteData + 0 + 187
                           1278 ; genAssign (pointer)
   0465 3E 00              1279 	ld	a,#0x00
   0467 12                 1280 	ld	(de),a
                           1281 ; genPlus
                           1282 ; genPlusIncr
   0468 11 BC 00           1283 	ld	de,#_SpriteData + 0 + 188
                           1284 ; genAssign (pointer)
   046B 3E 00              1285 	ld	a,#0x00
   046D 12                 1286 	ld	(de),a
                           1287 ; genPlus
                           1288 ; genPlusIncr
   046E 11 BD 00           1289 	ld	de,#_SpriteData + 0 + 189
                           1290 ; genAssign (pointer)
   0471 3E 00              1291 	ld	a,#0x00
   0473 12                 1292 	ld	(de),a
                           1293 ; genPlus
                           1294 ; genPlusIncr
   0474 11 BE 00           1295 	ld	de,#_SpriteData + 0 + 190
                           1296 ; genAssign (pointer)
   0477 3E 00              1297 	ld	a,#0x00
   0479 12                 1298 	ld	(de),a
                           1299 ; genPlus
                           1300 ; genPlusIncr
   047A 11 BF 00           1301 	ld	de,#_SpriteData + 0 + 191
                           1302 ; genAssign (pointer)
   047D 3E 00              1303 	ld	a,#0x00
   047F 12                 1304 	ld	(de),a
                           1305 ; genPlus
                           1306 ; genPlusIncr
   0480 11 C0 00           1307 	ld	de,#_SpriteData + 0 + 192
                           1308 ; genAssign (pointer)
   0483 3E 00              1309 	ld	a,#0x00
   0485 12                 1310 	ld	(de),a
                           1311 ; genPlus
                           1312 ; genPlusIncr
   0486 11 C1 00           1313 	ld	de,#_SpriteData + 0 + 193
                           1314 ; genAssign (pointer)
   0489 3E 00              1315 	ld	a,#0x00
   048B 12                 1316 	ld	(de),a
                           1317 ; genPlus
                           1318 ; genPlusIncr
   048C 11 C2 00           1319 	ld	de,#_SpriteData + 0 + 194
                           1320 ; genAssign (pointer)
   048F 3E 00              1321 	ld	a,#0x00
   0491 12                 1322 	ld	(de),a
                           1323 ; genPlus
                           1324 ; genPlusIncr
   0492 11 C3 00           1325 	ld	de,#_SpriteData + 0 + 195
                           1326 ; genAssign (pointer)
   0495 3E 00              1327 	ld	a,#0x00
   0497 12                 1328 	ld	(de),a
                           1329 ; genPlus
                           1330 ; genPlusIncr
   0498 11 C4 00           1331 	ld	de,#_SpriteData + 0 + 196
                           1332 ; genAssign (pointer)
   049B 3E 00              1333 	ld	a,#0x00
   049D 12                 1334 	ld	(de),a
                           1335 ; genPlus
                           1336 ; genPlusIncr
   049E 11 C5 00           1337 	ld	de,#_SpriteData + 0 + 197
                           1338 ; genAssign (pointer)
   04A1 3E 00              1339 	ld	a,#0x00
   04A3 12                 1340 	ld	(de),a
                           1341 ; genPlus
                           1342 ; genPlusIncr
   04A4 11 C6 00           1343 	ld	de,#_SpriteData + 0 + 198
                           1344 ; genAssign (pointer)
   04A7 3E 07              1345 	ld	a,#0x07
   04A9 12                 1346 	ld	(de),a
                           1347 ; genPlus
                           1348 ; genPlusIncr
   04AA 11 C7 00           1349 	ld	de,#_SpriteData + 0 + 199
                           1350 ; genAssign (pointer)
   04AD 3E 07              1351 	ld	a,#0x07
   04AF 12                 1352 	ld	(de),a
                           1353 ; genPlus
                           1354 ; genPlusIncr
   04B0 11 C8 00           1355 	ld	de,#_SpriteData + 0 + 200
                           1356 ; genAssign (pointer)
   04B3 3E 04              1357 	ld	a,#0x04
   04B5 12                 1358 	ld	(de),a
                           1359 ; genPlus
                           1360 ; genPlusIncr
   04B6 11 C9 00           1361 	ld	de,#_SpriteData + 0 + 201
                           1362 ; genAssign (pointer)
   04B9 3E 07              1363 	ld	a,#0x07
   04BB 12                 1364 	ld	(de),a
                           1365 ; genPlus
                           1366 ; genPlusIncr
   04BC 11 CA 00           1367 	ld	de,#_SpriteData + 0 + 202
                           1368 ; genAssign (pointer)
   04BF 3E 0F              1369 	ld	a,#0x0F
   04C1 12                 1370 	ld	(de),a
                           1371 ; genPlus
                           1372 ; genPlusIncr
   04C2 11 CB 00           1373 	ld	de,#_SpriteData + 0 + 203
                           1374 ; genAssign (pointer)
   04C5 3E 0F              1375 	ld	a,#0x0F
   04C7 12                 1376 	ld	(de),a
                           1377 ; genPlus
                           1378 ; genPlusIncr
   04C8 11 CC 00           1379 	ld	de,#_SpriteData + 0 + 204
                           1380 ; genAssign (pointer)
   04CB 3E 7F              1381 	ld	a,#0x7F
   04CD 12                 1382 	ld	(de),a
                           1383 ; genPlus
                           1384 ; genPlusIncr
   04CE 11 CD 00           1385 	ld	de,#_SpriteData + 0 + 205
                           1386 ; genAssign (pointer)
   04D1 3E 70              1387 	ld	a,#0x70
   04D3 12                 1388 	ld	(de),a
                           1389 ; genPlus
                           1390 ; genPlusIncr
   04D4 11 CE 00           1391 	ld	de,#_SpriteData + 0 + 206
                           1392 ; genAssign (pointer)
   04D7 3E FF              1393 	ld	a,#0xFF
   04D9 12                 1394 	ld	(de),a
                           1395 ; genPlus
                           1396 ; genPlusIncr
   04DA 11 CF 00           1397 	ld	de,#_SpriteData + 0 + 207
                           1398 ; genAssign (pointer)
   04DD 3E 85              1399 	ld	a,#0x85
   04DF 12                 1400 	ld	(de),a
                           1401 ; genPlus
                           1402 ; genPlusIncr
   04E0 11 D0 00           1403 	ld	de,#_SpriteData + 0 + 208
                           1404 ; genAssign (pointer)
   04E3 3E 7E              1405 	ld	a,#0x7E
   04E5 12                 1406 	ld	(de),a
                           1407 ; genPlus
                           1408 ; genPlusIncr
   04E6 11 D1 00           1409 	ld	de,#_SpriteData + 0 + 209
                           1410 ; genAssign (pointer)
   04E9 3E 7E              1411 	ld	a,#0x7E
   04EB 12                 1412 	ld	(de),a
                           1413 ; genPlus
                           1414 ; genPlusIncr
   04EC 11 D2 00           1415 	ld	de,#_SpriteData + 0 + 210
                           1416 ; genAssign (pointer)
   04EF 3E FF              1417 	ld	a,#0xFF
   04F1 12                 1418 	ld	(de),a
                           1419 ; genPlus
                           1420 ; genPlusIncr
   04F2 11 D3 00           1421 	ld	de,#_SpriteData + 0 + 211
                           1422 ; genAssign (pointer)
   04F5 3E 81              1423 	ld	a,#0x81
   04F7 12                 1424 	ld	(de),a
                           1425 ; genPlus
                           1426 ; genPlusIncr
   04F8 11 D4 00           1427 	ld	de,#_SpriteData + 0 + 212
                           1428 ; genAssign (pointer)
   04FB 3E FF              1429 	ld	a,#0xFF
   04FD 12                 1430 	ld	(de),a
                           1431 ; genPlus
                           1432 ; genPlusIncr
   04FE 11 D5 00           1433 	ld	de,#_SpriteData + 0 + 213
                           1434 ; genAssign (pointer)
   0501 3E E3              1435 	ld	a,#0xE3
   0503 12                 1436 	ld	(de),a
                           1437 ; genPlus
                           1438 ; genPlusIncr
   0504 11 D6 00           1439 	ld	de,#_SpriteData + 0 + 214
                           1440 ; genAssign (pointer)
   0507 3E FE              1441 	ld	a,#0xFE
   0509 12                 1442 	ld	(de),a
                           1443 ; genPlus
                           1444 ; genPlusIncr
   050A 11 D7 00           1445 	ld	de,#_SpriteData + 0 + 215
                           1446 ; genAssign (pointer)
   050D 3E C6              1447 	ld	a,#0xC6
   050F 12                 1448 	ld	(de),a
                           1449 ; genPlus
                           1450 ; genPlusIncr
   0510 11 D8 00           1451 	ld	de,#_SpriteData + 0 + 216
                           1452 ; genAssign (pointer)
   0513 3E FA              1453 	ld	a,#0xFA
   0515 12                 1454 	ld	(de),a
                           1455 ; genPlus
                           1456 ; genPlusIncr
   0516 11 D9 00           1457 	ld	de,#_SpriteData + 0 + 217
                           1458 ; genAssign (pointer)
   0519 3E 8E              1459 	ld	a,#0x8E
   051B 12                 1460 	ld	(de),a
                           1461 ; genPlus
                           1462 ; genPlusIncr
   051C 11 DA 00           1463 	ld	de,#_SpriteData + 0 + 218
                           1464 ; genAssign (pointer)
   051F 3E FE              1465 	ld	a,#0xFE
   0521 12                 1466 	ld	(de),a
                           1467 ; genPlus
                           1468 ; genPlusIncr
   0522 11 DB 00           1469 	ld	de,#_SpriteData + 0 + 219
                           1470 ; genAssign (pointer)
   0525 3E 1E              1471 	ld	a,#0x1E
   0527 12                 1472 	ld	(de),a
                           1473 ; genPlus
                           1474 ; genPlusIncr
   0528 11 DC 00           1475 	ld	de,#_SpriteData + 0 + 220
                           1476 ; genAssign (pointer)
   052B 3E FE              1477 	ld	a,#0xFE
   052D 12                 1478 	ld	(de),a
                           1479 ; genPlus
                           1480 ; genPlusIncr
   052E 11 DD 00           1481 	ld	de,#_SpriteData + 0 + 221
                           1482 ; genAssign (pointer)
   0531 3E 06              1483 	ld	a,#0x06
   0533 12                 1484 	ld	(de),a
                           1485 ; genPlus
                           1486 ; genPlusIncr
   0534 11 DE 00           1487 	ld	de,#_SpriteData + 0 + 222
                           1488 ; genAssign (pointer)
   0537 3E FE              1489 	ld	a,#0xFE
   0539 12                 1490 	ld	(de),a
                           1491 ; genPlus
                           1492 ; genPlusIncr
   053A 11 DF 00           1493 	ld	de,#_SpriteData + 0 + 223
                           1494 ; genAssign (pointer)
   053D 3E 52              1495 	ld	a,#0x52
   053F 12                 1496 	ld	(de),a
                           1497 ; genPlus
                           1498 ; genPlusIncr
   0540 11 E0 00           1499 	ld	de,#_SpriteData + 0 + 224
                           1500 ; genAssign (pointer)
   0543 3E FF              1501 	ld	a,#0xFF
   0545 12                 1502 	ld	(de),a
                           1503 ; genPlus
                           1504 ; genPlusIncr
   0546 11 E1 00           1505 	ld	de,#_SpriteData + 0 + 225
                           1506 ; genAssign (pointer)
   0549 3E 85              1507 	ld	a,#0x85
   054B 12                 1508 	ld	(de),a
                           1509 ; genPlus
                           1510 ; genPlusIncr
   054C 11 E2 00           1511 	ld	de,#_SpriteData + 0 + 226
                           1512 ; genAssign (pointer)
   054F 3E 7F              1513 	ld	a,#0x7F
   0551 12                 1514 	ld	(de),a
                           1515 ; genPlus
                           1516 ; genPlusIncr
   0552 11 E3 00           1517 	ld	de,#_SpriteData + 0 + 227
                           1518 ; genAssign (pointer)
   0555 3E 70              1519 	ld	a,#0x70
   0557 12                 1520 	ld	(de),a
                           1521 ; genPlus
                           1522 ; genPlusIncr
   0558 11 E4 00           1523 	ld	de,#_SpriteData + 0 + 228
                           1524 ; genAssign (pointer)
   055B 3E 0F              1525 	ld	a,#0x0F
   055D 12                 1526 	ld	(de),a
                           1527 ; genPlus
                           1528 ; genPlusIncr
   055E 11 E5 00           1529 	ld	de,#_SpriteData + 0 + 229
                           1530 ; genAssign (pointer)
   0561 3E 0F              1531 	ld	a,#0x0F
   0563 12                 1532 	ld	(de),a
                           1533 ; genPlus
                           1534 ; genPlusIncr
   0564 11 E6 00           1535 	ld	de,#_SpriteData + 0 + 230
                           1536 ; genAssign (pointer)
   0567 3E 04              1537 	ld	a,#0x04
   0569 12                 1538 	ld	(de),a
                           1539 ; genPlus
                           1540 ; genPlusIncr
   056A 11 E7 00           1541 	ld	de,#_SpriteData + 0 + 231
                           1542 ; genAssign (pointer)
   056D 3E 07              1543 	ld	a,#0x07
   056F 12                 1544 	ld	(de),a
                           1545 ; genPlus
                           1546 ; genPlusIncr
   0570 11 E8 00           1547 	ld	de,#_SpriteData + 0 + 232
                           1548 ; genAssign (pointer)
   0573 3E 07              1549 	ld	a,#0x07
   0575 12                 1550 	ld	(de),a
                           1551 ; genPlus
                           1552 ; genPlusIncr
   0576 11 E9 00           1553 	ld	de,#_SpriteData + 0 + 233
                           1554 ; genAssign (pointer)
   0579 3E 07              1555 	ld	a,#0x07
   057B 12                 1556 	ld	(de),a
                           1557 ; genPlus
                           1558 ; genPlusIncr
   057C 11 EA 00           1559 	ld	de,#_SpriteData + 0 + 234
                           1560 ; genAssign (pointer)
   057F 3E 00              1561 	ld	a,#0x00
   0581 12                 1562 	ld	(de),a
                           1563 ; genPlus
                           1564 ; genPlusIncr
   0582 11 EB 00           1565 	ld	de,#_SpriteData + 0 + 235
                           1566 ; genAssign (pointer)
   0585 3E 00              1567 	ld	a,#0x00
   0587 12                 1568 	ld	(de),a
                           1569 ; genPlus
                           1570 ; genPlusIncr
   0588 11 EC 00           1571 	ld	de,#_SpriteData + 0 + 236
                           1572 ; genAssign (pointer)
   058B 3E 00              1573 	ld	a,#0x00
   058D 12                 1574 	ld	(de),a
                           1575 ; genPlus
                           1576 ; genPlusIncr
   058E 11 ED 00           1577 	ld	de,#_SpriteData + 0 + 237
                           1578 ; genAssign (pointer)
   0591 3E 00              1579 	ld	a,#0x00
   0593 12                 1580 	ld	(de),a
                           1581 ; genPlus
                           1582 ; genPlusIncr
   0594 11 EE 00           1583 	ld	de,#_SpriteData + 0 + 238
                           1584 ; genAssign (pointer)
   0597 3E 00              1585 	ld	a,#0x00
   0599 12                 1586 	ld	(de),a
                           1587 ; genPlus
                           1588 ; genPlusIncr
   059A 11 EF 00           1589 	ld	de,#_SpriteData + 0 + 239
                           1590 ; genAssign (pointer)
   059D 3E 00              1591 	ld	a,#0x00
   059F 12                 1592 	ld	(de),a
                           1593 ; genPlus
                           1594 ; genPlusIncr
   05A0 11 F0 00           1595 	ld	de,#_SpriteData + 0 + 240
                           1596 ; genAssign (pointer)
   05A3 3E FE              1597 	ld	a,#0xFE
   05A5 12                 1598 	ld	(de),a
                           1599 ; genPlus
                           1600 ; genPlusIncr
   05A6 11 F1 00           1601 	ld	de,#_SpriteData + 0 + 241
                           1602 ; genAssign (pointer)
   05A9 3E 52              1603 	ld	a,#0x52
   05AB 12                 1604 	ld	(de),a
                           1605 ; genPlus
                           1606 ; genPlusIncr
   05AC 11 F2 00           1607 	ld	de,#_SpriteData + 0 + 242
                           1608 ; genAssign (pointer)
   05AF 3E FE              1609 	ld	a,#0xFE
   05B1 12                 1610 	ld	(de),a
                           1611 ; genPlus
                           1612 ; genPlusIncr
   05B2 11 F3 00           1613 	ld	de,#_SpriteData + 0 + 243
                           1614 ; genAssign (pointer)
   05B5 3E 06              1615 	ld	a,#0x06
   05B7 12                 1616 	ld	(de),a
                           1617 ; genPlus
                           1618 ; genPlusIncr
   05B8 11 F4 00           1619 	ld	de,#_SpriteData + 0 + 244
                           1620 ; genAssign (pointer)
   05BB 3E FE              1621 	ld	a,#0xFE
   05BD 12                 1622 	ld	(de),a
                           1623 ; genPlus
                           1624 ; genPlusIncr
   05BE 11 F5 00           1625 	ld	de,#_SpriteData + 0 + 245
                           1626 ; genAssign (pointer)
   05C1 3E 1E              1627 	ld	a,#0x1E
   05C3 12                 1628 	ld	(de),a
                           1629 ; genPlus
                           1630 ; genPlusIncr
   05C4 11 F6 00           1631 	ld	de,#_SpriteData + 0 + 246
                           1632 ; genAssign (pointer)
   05C7 3E FA              1633 	ld	a,#0xFA
   05C9 12                 1634 	ld	(de),a
                           1635 ; genPlus
                           1636 ; genPlusIncr
   05CA 11 F7 00           1637 	ld	de,#_SpriteData + 0 + 247
                           1638 ; genAssign (pointer)
   05CD 3E 8E              1639 	ld	a,#0x8E
   05CF 12                 1640 	ld	(de),a
                           1641 ; genPlus
                           1642 ; genPlusIncr
   05D0 11 F8 00           1643 	ld	de,#_SpriteData + 0 + 248
                           1644 ; genAssign (pointer)
   05D3 3E FE              1645 	ld	a,#0xFE
   05D5 12                 1646 	ld	(de),a
                           1647 ; genPlus
                           1648 ; genPlusIncr
   05D6 11 F9 00           1649 	ld	de,#_SpriteData + 0 + 249
                           1650 ; genAssign (pointer)
   05D9 3E C6              1651 	ld	a,#0xC6
   05DB 12                 1652 	ld	(de),a
                           1653 ; genPlus
                           1654 ; genPlusIncr
   05DC 11 FA 00           1655 	ld	de,#_SpriteData + 0 + 250
                           1656 ; genAssign (pointer)
   05DF 3E FF              1657 	ld	a,#0xFF
   05E1 12                 1658 	ld	(de),a
                           1659 ; genPlus
                           1660 ; genPlusIncr
   05E2 11 FB 00           1661 	ld	de,#_SpriteData + 0 + 251
                           1662 ; genAssign (pointer)
   05E5 3E E3              1663 	ld	a,#0xE3
   05E7 12                 1664 	ld	(de),a
                           1665 ; genPlus
                           1666 ; genPlusIncr
   05E8 11 FC 00           1667 	ld	de,#_SpriteData + 0 + 252
                           1668 ; genAssign (pointer)
   05EB 3E FF              1669 	ld	a,#0xFF
   05ED 12                 1670 	ld	(de),a
                           1671 ; genPlus
                           1672 ; genPlusIncr
   05EE 11 FD 00           1673 	ld	de,#_SpriteData + 0 + 253
                           1674 ; genAssign (pointer)
   05F1 3E 81              1675 	ld	a,#0x81
   05F3 12                 1676 	ld	(de),a
                           1677 ; genPlus
                           1678 ; genPlusIncr
   05F4 11 FE 00           1679 	ld	de,#_SpriteData + 0 + 254
                           1680 ; genAssign (pointer)
   05F7 3E 7E              1681 	ld	a,#0x7E
   05F9 12                 1682 	ld	(de),a
                           1683 ; genPlus
                           1684 ; genPlusIncr
   05FA 11 FF 00           1685 	ld	de,#_SpriteData + 0 + 255
                           1686 ; genAssign (pointer)
   05FD 3E 7E              1687 	ld	a,#0x7E
   05FF 12                 1688 	ld	(de),a
                           1689 ; genPlus
                           1690 ; genPlusIncr
   0600 11 00 01           1691 	ld	de,#_SpriteData + 0 + 256
                           1692 ; genAssign (pointer)
   0603 3E 31              1693 	ld	a,#0x31
   0605 12                 1694 	ld	(de),a
                           1695 ; genPlus
                           1696 ; genPlusIncr
   0606 11 01 01           1697 	ld	de,#_SpriteData + 0 + 257
                           1698 ; genAssign (pointer)
   0609 3E 31              1699 	ld	a,#0x31
   060B 12                 1700 	ld	(de),a
                           1701 ; genPlus
                           1702 ; genPlusIncr
   060C 11 02 01           1703 	ld	de,#_SpriteData + 0 + 258
                           1704 ; genAssign (pointer)
   060F 3E 4E              1705 	ld	a,#0x4E
   0611 12                 1706 	ld	(de),a
                           1707 ; genPlus
                           1708 ; genPlusIncr
   0612 11 03 01           1709 	ld	de,#_SpriteData + 0 + 259
                           1710 ; genAssign (pointer)
   0615 3E 7F              1711 	ld	a,#0x7F
   0617 12                 1712 	ld	(de),a
                           1713 ; genPlus
                           1714 ; genPlusIncr
   0618 11 04 01           1715 	ld	de,#_SpriteData + 0 + 260
                           1716 ; genAssign (pointer)
   061B 3E 41              1717 	ld	a,#0x41
   061D 12                 1718 	ld	(de),a
                           1719 ; genPlus
                           1720 ; genPlusIncr
   061E 11 05 01           1721 	ld	de,#_SpriteData + 0 + 261
                           1722 ; genAssign (pointer)
   0621 3E 7F              1723 	ld	a,#0x7F
   0623 12                 1724 	ld	(de),a
                           1725 ; genPlus
                           1726 ; genPlusIncr
   0624 11 06 01           1727 	ld	de,#_SpriteData + 0 + 262
                           1728 ; genAssign (pointer)
   0627 3E 48              1729 	ld	a,#0x48
   0629 12                 1730 	ld	(de),a
                           1731 ; genPlus
                           1732 ; genPlusIncr
   062A 11 07 01           1733 	ld	de,#_SpriteData + 0 + 263
                           1734 ; genAssign (pointer)
   062D 3E 77              1735 	ld	a,#0x77
   062F 12                 1736 	ld	(de),a
                           1737 ; genPlus
                           1738 ; genPlusIncr
   0630 11 08 01           1739 	ld	de,#_SpriteData + 0 + 264
                           1740 ; genAssign (pointer)
   0633 3E 28              1741 	ld	a,#0x28
   0635 12                 1742 	ld	(de),a
                           1743 ; genPlus
                           1744 ; genPlusIncr
   0636 11 09 01           1745 	ld	de,#_SpriteData + 0 + 265
                           1746 ; genAssign (pointer)
   0639 3E 37              1747 	ld	a,#0x37
   063B 12                 1748 	ld	(de),a
                           1749 ; genPlus
                           1750 ; genPlusIncr
   063C 11 0A 01           1751 	ld	de,#_SpriteData + 0 + 266
                           1752 ; genAssign (pointer)
   063F 3E 21              1753 	ld	a,#0x21
   0641 12                 1754 	ld	(de),a
                           1755 ; genPlus
                           1756 ; genPlusIncr
   0642 11 0B 01           1757 	ld	de,#_SpriteData + 0 + 267
                           1758 ; genAssign (pointer)
   0645 3E 3E              1759 	ld	a,#0x3E
   0647 12                 1760 	ld	(de),a
                           1761 ; genPlus
                           1762 ; genPlusIncr
   0648 11 0C 01           1763 	ld	de,#_SpriteData + 0 + 268
                           1764 ; genAssign (pointer)
   064B 3E 48              1765 	ld	a,#0x48
   064D 12                 1766 	ld	(de),a
                           1767 ; genPlus
                           1768 ; genPlusIncr
   064E 11 0D 01           1769 	ld	de,#_SpriteData + 0 + 269
                           1770 ; genAssign (pointer)
   0651 3E 77              1771 	ld	a,#0x77
   0653 12                 1772 	ld	(de),a
                           1773 ; genPlus
                           1774 ; genPlusIncr
   0654 11 0E 01           1775 	ld	de,#_SpriteData + 0 + 270
                           1776 ; genAssign (pointer)
   0657 3E 80              1777 	ld	a,#0x80
   0659 12                 1778 	ld	(de),a
                           1779 ; genPlus
                           1780 ; genPlusIncr
   065A 11 0F 01           1781 	ld	de,#_SpriteData + 0 + 271
                           1782 ; genAssign (pointer)
   065D 3E FF              1783 	ld	a,#0xFF
   065F 12                 1784 	ld	(de),a
                           1785 ; genPlus
                           1786 ; genPlusIncr
   0660 11 10 01           1787 	ld	de,#_SpriteData + 0 + 272
                           1788 ; genAssign (pointer)
   0663 3E E0              1789 	ld	a,#0xE0
   0665 12                 1790 	ld	(de),a
                           1791 ; genPlus
                           1792 ; genPlusIncr
   0666 11 11 01           1793 	ld	de,#_SpriteData + 0 + 273
                           1794 ; genAssign (pointer)
   0669 3E E0              1795 	ld	a,#0xE0
   066B 12                 1796 	ld	(de),a
                           1797 ; genPlus
                           1798 ; genPlusIncr
   066C 11 12 01           1799 	ld	de,#_SpriteData + 0 + 274
                           1800 ; genAssign (pointer)
   066F 3E 10              1801 	ld	a,#0x10
   0671 12                 1802 	ld	(de),a
                           1803 ; genPlus
                           1804 ; genPlusIncr
   0672 11 13 01           1805 	ld	de,#_SpriteData + 0 + 275
                           1806 ; genAssign (pointer)
   0675 3E F0              1807 	ld	a,#0xF0
   0677 12                 1808 	ld	(de),a
                           1809 ; genPlus
                           1810 ; genPlusIncr
   0678 11 14 01           1811 	ld	de,#_SpriteData + 0 + 276
                           1812 ; genAssign (pointer)
   067B 3E 88              1813 	ld	a,#0x88
   067D 12                 1814 	ld	(de),a
                           1815 ; genPlus
                           1816 ; genPlusIncr
   067E 11 15 01           1817 	ld	de,#_SpriteData + 0 + 277
                           1818 ; genAssign (pointer)
   0681 3E 78              1819 	ld	a,#0x78
   0683 12                 1820 	ld	(de),a
                           1821 ; genPlus
                           1822 ; genPlusIncr
   0684 11 16 01           1823 	ld	de,#_SpriteData + 0 + 278
                           1824 ; genAssign (pointer)
   0687 3E A4              1825 	ld	a,#0xA4
   0689 12                 1826 	ld	(de),a
                           1827 ; genPlus
                           1828 ; genPlusIncr
   068A 11 17 01           1829 	ld	de,#_SpriteData + 0 + 279
                           1830 ; genAssign (pointer)
   068D 3E DC              1831 	ld	a,#0xDC
   068F 12                 1832 	ld	(de),a
                           1833 ; genPlus
                           1834 ; genPlusIncr
   0690 11 18 01           1835 	ld	de,#_SpriteData + 0 + 280
                           1836 ; genAssign (pointer)
   0693 3E 74              1837 	ld	a,#0x74
   0695 12                 1838 	ld	(de),a
                           1839 ; genPlus
                           1840 ; genPlusIncr
   0696 11 19 01           1841 	ld	de,#_SpriteData + 0 + 281
                           1842 ; genAssign (pointer)
   0699 3E CC              1843 	ld	a,#0xCC
   069B 12                 1844 	ld	(de),a
                           1845 ; genPlus
                           1846 ; genPlusIncr
   069C 11 1A 01           1847 	ld	de,#_SpriteData + 0 + 282
                           1848 ; genAssign (pointer)
   069F 3E 62              1849 	ld	a,#0x62
   06A1 12                 1850 	ld	(de),a
                           1851 ; genPlus
                           1852 ; genPlusIncr
   06A2 11 1B 01           1853 	ld	de,#_SpriteData + 0 + 283
                           1854 ; genAssign (pointer)
   06A5 3E DE              1855 	ld	a,#0xDE
   06A7 12                 1856 	ld	(de),a
                           1857 ; genPlus
                           1858 ; genPlusIncr
   06A8 11 1C 01           1859 	ld	de,#_SpriteData + 0 + 284
                           1860 ; genAssign (pointer)
   06AB 3E 01              1861 	ld	a,#0x01
   06AD 12                 1862 	ld	(de),a
                           1863 ; genPlus
                           1864 ; genPlusIncr
   06AE 11 1D 01           1865 	ld	de,#_SpriteData + 0 + 285
                           1866 ; genAssign (pointer)
   06B1 3E FF              1867 	ld	a,#0xFF
   06B3 12                 1868 	ld	(de),a
                           1869 ; genPlus
                           1870 ; genPlusIncr
   06B4 11 1E 01           1871 	ld	de,#_SpriteData + 0 + 286
                           1872 ; genAssign (pointer)
   06B7 3E 05              1873 	ld	a,#0x05
   06B9 12                 1874 	ld	(de),a
                           1875 ; genPlus
                           1876 ; genPlusIncr
   06BA 11 1F 01           1877 	ld	de,#_SpriteData + 0 + 287
                           1878 ; genAssign (pointer)
   06BD 3E FB              1879 	ld	a,#0xFB
   06BF 12                 1880 	ld	(de),a
                           1881 ; genPlus
                           1882 ; genPlusIncr
   06C0 11 20 01           1883 	ld	de,#_SpriteData + 0 + 288
                           1884 ; genAssign (pointer)
   06C3 3E BC              1885 	ld	a,#0xBC
   06C5 12                 1886 	ld	(de),a
                           1887 ; genPlus
                           1888 ; genPlusIncr
   06C6 11 21 01           1889 	ld	de,#_SpriteData + 0 + 289
                           1890 ; genAssign (pointer)
   06C9 3E FB              1891 	ld	a,#0xFB
   06CB 12                 1892 	ld	(de),a
                           1893 ; genPlus
                           1894 ; genPlusIncr
   06CC 11 22 01           1895 	ld	de,#_SpriteData + 0 + 290
                           1896 ; genAssign (pointer)
   06CF 3E 58              1897 	ld	a,#0x58
   06D1 12                 1898 	ld	(de),a
                           1899 ; genPlus
                           1900 ; genPlusIncr
   06D2 11 23 01           1901 	ld	de,#_SpriteData + 0 + 291
                           1902 ; genAssign (pointer)
   06D5 3E 67              1903 	ld	a,#0x67
   06D7 12                 1904 	ld	(de),a
                           1905 ; genPlus
                           1906 ; genPlusIncr
   06D8 11 24 01           1907 	ld	de,#_SpriteData + 0 + 292
                           1908 ; genAssign (pointer)
   06DB 3E 40              1909 	ld	a,#0x40
   06DD 12                 1910 	ld	(de),a
                           1911 ; genPlus
                           1912 ; genPlusIncr
   06DE 11 25 01           1913 	ld	de,#_SpriteData + 0 + 293
                           1914 ; genAssign (pointer)
   06E1 3E 7F              1915 	ld	a,#0x7F
   06E3 12                 1916 	ld	(de),a
                           1917 ; genPlus
                           1918 ; genPlusIncr
   06E4 11 26 01           1919 	ld	de,#_SpriteData + 0 + 294
                           1920 ; genAssign (pointer)
   06E7 3E 84              1921 	ld	a,#0x84
   06E9 12                 1922 	ld	(de),a
                           1923 ; genPlus
                           1924 ; genPlusIncr
   06EA 11 27 01           1925 	ld	de,#_SpriteData + 0 + 295
                           1926 ; genAssign (pointer)
   06ED 3E FB              1927 	ld	a,#0xFB
   06EF 12                 1928 	ld	(de),a
                           1929 ; genPlus
                           1930 ; genPlusIncr
   06F0 11 28 01           1931 	ld	de,#_SpriteData + 0 + 296
                           1932 ; genAssign (pointer)
   06F3 3E A2              1933 	ld	a,#0xA2
   06F5 12                 1934 	ld	(de),a
                           1935 ; genPlus
                           1936 ; genPlusIncr
   06F6 11 29 01           1937 	ld	de,#_SpriteData + 0 + 297
                           1938 ; genAssign (pointer)
   06F9 3E DF              1939 	ld	a,#0xDF
   06FB 12                 1940 	ld	(de),a
                           1941 ; genPlus
                           1942 ; genPlusIncr
   06FC 11 2A 01           1943 	ld	de,#_SpriteData + 0 + 298
                           1944 ; genAssign (pointer)
   06FF 3E 84              1945 	ld	a,#0x84
   0701 12                 1946 	ld	(de),a
                           1947 ; genPlus
                           1948 ; genPlusIncr
   0702 11 2B 01           1949 	ld	de,#_SpriteData + 0 + 299
                           1950 ; genAssign (pointer)
   0705 3E FF              1951 	ld	a,#0xFF
   0707 12                 1952 	ld	(de),a
                           1953 ; genPlus
                           1954 ; genPlusIncr
   0708 11 2C 01           1955 	ld	de,#_SpriteData + 0 + 300
                           1956 ; genAssign (pointer)
   070B 3E 78              1957 	ld	a,#0x78
   070D 12                 1958 	ld	(de),a
                           1959 ; genPlus
                           1960 ; genPlusIncr
   070E 11 2D 01           1961 	ld	de,#_SpriteData + 0 + 301
                           1962 ; genAssign (pointer)
   0711 3E 7F              1963 	ld	a,#0x7F
   0713 12                 1964 	ld	(de),a
                           1965 ; genPlus
                           1966 ; genPlusIncr
   0714 11 2E 01           1967 	ld	de,#_SpriteData + 0 + 302
                           1968 ; genAssign (pointer)
   0717 3E 07              1969 	ld	a,#0x07
   0719 12                 1970 	ld	(de),a
                           1971 ; genPlus
                           1972 ; genPlusIncr
   071A 11 2F 01           1973 	ld	de,#_SpriteData + 0 + 303
                           1974 ; genAssign (pointer)
   071D 3E 07              1975 	ld	a,#0x07
   071F 12                 1976 	ld	(de),a
                           1977 ; genPlus
                           1978 ; genPlusIncr
   0720 11 30 01           1979 	ld	de,#_SpriteData + 0 + 304
                           1980 ; genAssign (pointer)
   0723 3E 89              1981 	ld	a,#0x89
   0725 12                 1982 	ld	(de),a
                           1983 ; genPlus
                           1984 ; genPlusIncr
   0726 11 31 01           1985 	ld	de,#_SpriteData + 0 + 305
                           1986 ; genAssign (pointer)
   0729 3E 77              1987 	ld	a,#0x77
   072B 12                 1988 	ld	(de),a
                           1989 ; genPlus
                           1990 ; genPlusIncr
   072C 11 32 01           1991 	ld	de,#_SpriteData + 0 + 306
                           1992 ; genAssign (pointer)
   072F 3E 62              1993 	ld	a,#0x62
   0731 12                 1994 	ld	(de),a
                           1995 ; genPlus
                           1996 ; genPlusIncr
   0732 11 33 01           1997 	ld	de,#_SpriteData + 0 + 307
                           1998 ; genAssign (pointer)
   0735 3E 9E              1999 	ld	a,#0x9E
   0737 12                 2000 	ld	(de),a
                           2001 ; genPlus
                           2002 ; genPlusIncr
   0738 11 34 01           2003 	ld	de,#_SpriteData + 0 + 308
                           2004 ; genAssign (pointer)
   073B 3E 44              2005 	ld	a,#0x44
   073D 12                 2006 	ld	(de),a
                           2007 ; genPlus
                           2008 ; genPlusIncr
   073E 11 35 01           2009 	ld	de,#_SpriteData + 0 + 309
                           2010 ; genAssign (pointer)
   0741 3E BC              2011 	ld	a,#0xBC
   0743 12                 2012 	ld	(de),a
                           2013 ; genPlus
                           2014 ; genPlusIncr
   0744 11 36 01           2015 	ld	de,#_SpriteData + 0 + 310
                           2016 ; genAssign (pointer)
   0747 3E 08              2017 	ld	a,#0x08
   0749 12                 2018 	ld	(de),a
                           2019 ; genPlus
                           2020 ; genPlusIncr
   074A 11 37 01           2021 	ld	de,#_SpriteData + 0 + 311
                           2022 ; genAssign (pointer)
   074D 3E F8              2023 	ld	a,#0xF8
   074F 12                 2024 	ld	(de),a
                           2025 ; genPlus
                           2026 ; genPlusIncr
   0750 11 38 01           2027 	ld	de,#_SpriteData + 0 + 312
                           2028 ; genAssign (pointer)
   0753 3E 90              2029 	ld	a,#0x90
   0755 12                 2030 	ld	(de),a
                           2031 ; genPlus
                           2032 ; genPlusIncr
   0756 11 39 01           2033 	ld	de,#_SpriteData + 0 + 313
                           2034 ; genAssign (pointer)
   0759 3E 70              2035 	ld	a,#0x70
   075B 12                 2036 	ld	(de),a
                           2037 ; genPlus
                           2038 ; genPlusIncr
   075C 11 3A 01           2039 	ld	de,#_SpriteData + 0 + 314
                           2040 ; genAssign (pointer)
   075F 3E 50              2041 	ld	a,#0x50
   0761 12                 2042 	ld	(de),a
                           2043 ; genPlus
                           2044 ; genPlusIncr
   0762 11 3B 01           2045 	ld	de,#_SpriteData + 0 + 315
                           2046 ; genAssign (pointer)
   0765 3E B0              2047 	ld	a,#0xB0
   0767 12                 2048 	ld	(de),a
                           2049 ; genPlus
                           2050 ; genPlusIncr
   0768 11 3C 01           2051 	ld	de,#_SpriteData + 0 + 316
                           2052 ; genAssign (pointer)
   076B 3E 60              2053 	ld	a,#0x60
   076D 12                 2054 	ld	(de),a
                           2055 ; genPlus
                           2056 ; genPlusIncr
   076E 11 3D 01           2057 	ld	de,#_SpriteData + 0 + 317
                           2058 ; genAssign (pointer)
   0771 3E E0              2059 	ld	a,#0xE0
   0773 12                 2060 	ld	(de),a
                           2061 ; genPlus
                           2062 ; genPlusIncr
   0774 11 3E 01           2063 	ld	de,#_SpriteData + 0 + 318
                           2064 ; genAssign (pointer)
   0777 3E 80              2065 	ld	a,#0x80
   0779 12                 2066 	ld	(de),a
                           2067 ; genPlus
                           2068 ; genPlusIncr
   077A 11 3F 01           2069 	ld	de,#_SpriteData + 0 + 319
                           2070 ; genAssign (pointer)
   077D 3E 80              2071 	ld	a,#0x80
   077F 12                 2072 	ld	(de),a
                           2073 ; genPlus
                           2074 ; genPlusIncr
   0780 11 40 01           2075 	ld	de,#_SpriteData + 0 + 320
                           2076 ; genAssign (pointer)
   0783 3E 00              2077 	ld	a,#0x00
   0785 12                 2078 	ld	(de),a
                           2079 ; genPlus
                           2080 ; genPlusIncr
   0786 11 41 01           2081 	ld	de,#_SpriteData + 0 + 321
                           2082 ; genAssign (pointer)
   0789 3E 00              2083 	ld	a,#0x00
   078B 12                 2084 	ld	(de),a
                           2085 ; genPlus
                           2086 ; genPlusIncr
   078C 11 42 01           2087 	ld	de,#_SpriteData + 0 + 322
                           2088 ; genAssign (pointer)
   078F 3E 00              2089 	ld	a,#0x00
   0791 12                 2090 	ld	(de),a
                           2091 ; genPlus
                           2092 ; genPlusIncr
   0792 11 43 01           2093 	ld	de,#_SpriteData + 0 + 323
                           2094 ; genAssign (pointer)
   0795 3E 00              2095 	ld	a,#0x00
   0797 12                 2096 	ld	(de),a
                           2097 ; genPlus
                           2098 ; genPlusIncr
   0798 11 44 01           2099 	ld	de,#_SpriteData + 0 + 324
                           2100 ; genAssign (pointer)
   079B 3E 00              2101 	ld	a,#0x00
   079D 12                 2102 	ld	(de),a
                           2103 ; genPlus
                           2104 ; genPlusIncr
   079E 11 45 01           2105 	ld	de,#_SpriteData + 0 + 325
                           2106 ; genAssign (pointer)
   07A1 3E 00              2107 	ld	a,#0x00
   07A3 12                 2108 	ld	(de),a
                           2109 ; genPlus
                           2110 ; genPlusIncr
   07A4 11 46 01           2111 	ld	de,#_SpriteData + 0 + 326
                           2112 ; genAssign (pointer)
   07A7 3E 03              2113 	ld	a,#0x03
   07A9 12                 2114 	ld	(de),a
                           2115 ; genPlus
                           2116 ; genPlusIncr
   07AA 11 47 01           2117 	ld	de,#_SpriteData + 0 + 327
                           2118 ; genAssign (pointer)
   07AD 3E 03              2119 	ld	a,#0x03
   07AF 12                 2120 	ld	(de),a
                           2121 ; genPlus
                           2122 ; genPlusIncr
   07B0 11 48 01           2123 	ld	de,#_SpriteData + 0 + 328
                           2124 ; genAssign (pointer)
   07B3 3E 05              2125 	ld	a,#0x05
   07B5 12                 2126 	ld	(de),a
                           2127 ; genPlus
                           2128 ; genPlusIncr
   07B6 11 49 01           2129 	ld	de,#_SpriteData + 0 + 329
                           2130 ; genAssign (pointer)
   07B9 3E 06              2131 	ld	a,#0x06
   07BB 12                 2132 	ld	(de),a
                           2133 ; genPlus
                           2134 ; genPlusIncr
   07BC 11 4A 01           2135 	ld	de,#_SpriteData + 0 + 330
                           2136 ; genAssign (pointer)
   07BF 3E 0B              2137 	ld	a,#0x0B
   07C1 12                 2138 	ld	(de),a
                           2139 ; genPlus
                           2140 ; genPlusIncr
   07C2 11 4B 01           2141 	ld	de,#_SpriteData + 0 + 331
                           2142 ; genAssign (pointer)
   07C5 3E 0C              2143 	ld	a,#0x0C
   07C7 12                 2144 	ld	(de),a
                           2145 ; genPlus
                           2146 ; genPlusIncr
   07C8 11 4C 01           2147 	ld	de,#_SpriteData + 0 + 332
                           2148 ; genAssign (pointer)
   07CB 3E 15              2149 	ld	a,#0x15
   07CD 12                 2150 	ld	(de),a
                           2151 ; genPlus
                           2152 ; genPlusIncr
   07CE 11 4D 01           2153 	ld	de,#_SpriteData + 0 + 333
                           2154 ; genAssign (pointer)
   07D1 3E 1B              2155 	ld	a,#0x1B
   07D3 12                 2156 	ld	(de),a
                           2157 ; genPlus
                           2158 ; genPlusIncr
   07D4 11 4E 01           2159 	ld	de,#_SpriteData + 0 + 334
                           2160 ; genAssign (pointer)
   07D7 3E 1E              2161 	ld	a,#0x1E
   07D9 12                 2162 	ld	(de),a
                           2163 ; genPlus
                           2164 ; genPlusIncr
   07DA 11 4F 01           2165 	ld	de,#_SpriteData + 0 + 335
                           2166 ; genAssign (pointer)
   07DD 3E 13              2167 	ld	a,#0x13
   07DF 12                 2168 	ld	(de),a
                           2169 ; genPlus
                           2170 ; genPlusIncr
   07E0 11 50 01           2171 	ld	de,#_SpriteData + 0 + 336
                           2172 ; genAssign (pointer)
   07E3 3E 00              2173 	ld	a,#0x00
   07E5 12                 2174 	ld	(de),a
                           2175 ; genPlus
                           2176 ; genPlusIncr
   07E6 11 51 01           2177 	ld	de,#_SpriteData + 0 + 337
                           2178 ; genAssign (pointer)
   07E9 3E 00              2179 	ld	a,#0x00
   07EB 12                 2180 	ld	(de),a
                           2181 ; genPlus
                           2182 ; genPlusIncr
   07EC 11 52 01           2183 	ld	de,#_SpriteData + 0 + 338
                           2184 ; genAssign (pointer)
   07EF 3E 00              2185 	ld	a,#0x00
   07F1 12                 2186 	ld	(de),a
                           2187 ; genPlus
                           2188 ; genPlusIncr
   07F2 11 53 01           2189 	ld	de,#_SpriteData + 0 + 339
                           2190 ; genAssign (pointer)
   07F5 3E 00              2191 	ld	a,#0x00
   07F7 12                 2192 	ld	(de),a
                           2193 ; genPlus
                           2194 ; genPlusIncr
   07F8 11 54 01           2195 	ld	de,#_SpriteData + 0 + 340
                           2196 ; genAssign (pointer)
   07FB 3E 00              2197 	ld	a,#0x00
   07FD 12                 2198 	ld	(de),a
                           2199 ; genPlus
                           2200 ; genPlusIncr
   07FE 11 55 01           2201 	ld	de,#_SpriteData + 0 + 341
                           2202 ; genAssign (pointer)
   0801 3E 00              2203 	ld	a,#0x00
   0803 12                 2204 	ld	(de),a
                           2205 ; genPlus
                           2206 ; genPlusIncr
   0804 11 56 01           2207 	ld	de,#_SpriteData + 0 + 342
                           2208 ; genAssign (pointer)
   0807 3E C0              2209 	ld	a,#0xC0
   0809 12                 2210 	ld	(de),a
                           2211 ; genPlus
                           2212 ; genPlusIncr
   080A 11 57 01           2213 	ld	de,#_SpriteData + 0 + 343
                           2214 ; genAssign (pointer)
   080D 3E C0              2215 	ld	a,#0xC0
   080F 12                 2216 	ld	(de),a
                           2217 ; genPlus
                           2218 ; genPlusIncr
   0810 11 58 01           2219 	ld	de,#_SpriteData + 0 + 344
                           2220 ; genAssign (pointer)
   0813 3E A0              2221 	ld	a,#0xA0
   0815 12                 2222 	ld	(de),a
                           2223 ; genPlus
                           2224 ; genPlusIncr
   0816 11 59 01           2225 	ld	de,#_SpriteData + 0 + 345
                           2226 ; genAssign (pointer)
   0819 3E 60              2227 	ld	a,#0x60
   081B 12                 2228 	ld	(de),a
                           2229 ; genPlus
                           2230 ; genPlusIncr
   081C 11 5A 01           2231 	ld	de,#_SpriteData + 0 + 346
                           2232 ; genAssign (pointer)
   081F 3E D0              2233 	ld	a,#0xD0
   0821 12                 2234 	ld	(de),a
                           2235 ; genPlus
                           2236 ; genPlusIncr
   0822 11 5B 01           2237 	ld	de,#_SpriteData + 0 + 347
                           2238 ; genAssign (pointer)
   0825 3E 30              2239 	ld	a,#0x30
   0827 12                 2240 	ld	(de),a
                           2241 ; genPlus
                           2242 ; genPlusIncr
   0828 11 5C 01           2243 	ld	de,#_SpriteData + 0 + 348
                           2244 ; genAssign (pointer)
   082B 3E A8              2245 	ld	a,#0xA8
   082D 12                 2246 	ld	(de),a
                           2247 ; genPlus
                           2248 ; genPlusIncr
   082E 11 5D 01           2249 	ld	de,#_SpriteData + 0 + 349
                           2250 ; genAssign (pointer)
   0831 3E D8              2251 	ld	a,#0xD8
   0833 12                 2252 	ld	(de),a
                           2253 ; genPlus
                           2254 ; genPlusIncr
   0834 11 5E 01           2255 	ld	de,#_SpriteData + 0 + 350
                           2256 ; genAssign (pointer)
   0837 3E 78              2257 	ld	a,#0x78
   0839 12                 2258 	ld	(de),a
                           2259 ; genPlus
                           2260 ; genPlusIncr
   083A 11 5F 01           2261 	ld	de,#_SpriteData + 0 + 351
                           2262 ; genAssign (pointer)
   083D 3E C8              2263 	ld	a,#0xC8
   083F 12                 2264 	ld	(de),a
                           2265 ; genPlus
                           2266 ; genPlusIncr
   0840 11 60 01           2267 	ld	de,#_SpriteData + 0 + 352
                           2268 ; genAssign (pointer)
   0843 3E 1E              2269 	ld	a,#0x1E
   0845 12                 2270 	ld	(de),a
                           2271 ; genPlus
                           2272 ; genPlusIncr
   0846 11 61 01           2273 	ld	de,#_SpriteData + 0 + 353
                           2274 ; genAssign (pointer)
   0849 3E 13              2275 	ld	a,#0x13
   084B 12                 2276 	ld	(de),a
                           2277 ; genPlus
                           2278 ; genPlusIncr
   084C 11 62 01           2279 	ld	de,#_SpriteData + 0 + 354
                           2280 ; genAssign (pointer)
   084F 3E 15              2281 	ld	a,#0x15
   0851 12                 2282 	ld	(de),a
                           2283 ; genPlus
                           2284 ; genPlusIncr
   0852 11 63 01           2285 	ld	de,#_SpriteData + 0 + 355
                           2286 ; genAssign (pointer)
   0855 3E 1B              2287 	ld	a,#0x1B
   0857 12                 2288 	ld	(de),a
                           2289 ; genPlus
                           2290 ; genPlusIncr
   0858 11 64 01           2291 	ld	de,#_SpriteData + 0 + 356
                           2292 ; genAssign (pointer)
   085B 3E 0B              2293 	ld	a,#0x0B
   085D 12                 2294 	ld	(de),a
                           2295 ; genPlus
                           2296 ; genPlusIncr
   085E 11 65 01           2297 	ld	de,#_SpriteData + 0 + 357
                           2298 ; genAssign (pointer)
   0861 3E 0C              2299 	ld	a,#0x0C
   0863 12                 2300 	ld	(de),a
                           2301 ; genPlus
                           2302 ; genPlusIncr
   0864 11 66 01           2303 	ld	de,#_SpriteData + 0 + 358
                           2304 ; genAssign (pointer)
   0867 3E 05              2305 	ld	a,#0x05
   0869 12                 2306 	ld	(de),a
                           2307 ; genPlus
                           2308 ; genPlusIncr
   086A 11 67 01           2309 	ld	de,#_SpriteData + 0 + 359
                           2310 ; genAssign (pointer)
   086D 3E 06              2311 	ld	a,#0x06
   086F 12                 2312 	ld	(de),a
                           2313 ; genPlus
                           2314 ; genPlusIncr
   0870 11 68 01           2315 	ld	de,#_SpriteData + 0 + 360
                           2316 ; genAssign (pointer)
   0873 3E 03              2317 	ld	a,#0x03
   0875 12                 2318 	ld	(de),a
                           2319 ; genPlus
                           2320 ; genPlusIncr
   0876 11 69 01           2321 	ld	de,#_SpriteData + 0 + 361
                           2322 ; genAssign (pointer)
   0879 3E 03              2323 	ld	a,#0x03
   087B 12                 2324 	ld	(de),a
                           2325 ; genPlus
                           2326 ; genPlusIncr
   087C 11 6A 01           2327 	ld	de,#_SpriteData + 0 + 362
                           2328 ; genAssign (pointer)
   087F 3E 00              2329 	ld	a,#0x00
   0881 12                 2330 	ld	(de),a
                           2331 ; genPlus
                           2332 ; genPlusIncr
   0882 11 6B 01           2333 	ld	de,#_SpriteData + 0 + 363
                           2334 ; genAssign (pointer)
   0885 3E 00              2335 	ld	a,#0x00
   0887 12                 2336 	ld	(de),a
                           2337 ; genPlus
                           2338 ; genPlusIncr
   0888 11 6C 01           2339 	ld	de,#_SpriteData + 0 + 364
                           2340 ; genAssign (pointer)
   088B 3E 00              2341 	ld	a,#0x00
   088D 12                 2342 	ld	(de),a
                           2343 ; genPlus
                           2344 ; genPlusIncr
   088E 11 6D 01           2345 	ld	de,#_SpriteData + 0 + 365
                           2346 ; genAssign (pointer)
   0891 3E 00              2347 	ld	a,#0x00
   0893 12                 2348 	ld	(de),a
                           2349 ; genPlus
                           2350 ; genPlusIncr
   0894 11 6E 01           2351 	ld	de,#_SpriteData + 0 + 366
                           2352 ; genAssign (pointer)
   0897 3E 00              2353 	ld	a,#0x00
   0899 12                 2354 	ld	(de),a
                           2355 ; genPlus
                           2356 ; genPlusIncr
   089A 11 6F 01           2357 	ld	de,#_SpriteData + 0 + 367
                           2358 ; genAssign (pointer)
   089D 3E 00              2359 	ld	a,#0x00
   089F 12                 2360 	ld	(de),a
                           2361 ; genPlus
                           2362 ; genPlusIncr
   08A0 11 70 01           2363 	ld	de,#_SpriteData + 0 + 368
                           2364 ; genAssign (pointer)
   08A3 3E 78              2365 	ld	a,#0x78
   08A5 12                 2366 	ld	(de),a
                           2367 ; genPlus
                           2368 ; genPlusIncr
   08A6 11 71 01           2369 	ld	de,#_SpriteData + 0 + 369
                           2370 ; genAssign (pointer)
   08A9 3E C8              2371 	ld	a,#0xC8
   08AB 12                 2372 	ld	(de),a
                           2373 ; genPlus
                           2374 ; genPlusIncr
   08AC 11 72 01           2375 	ld	de,#_SpriteData + 0 + 370
                           2376 ; genAssign (pointer)
   08AF 3E A8              2377 	ld	a,#0xA8
   08B1 12                 2378 	ld	(de),a
                           2379 ; genPlus
                           2380 ; genPlusIncr
   08B2 11 73 01           2381 	ld	de,#_SpriteData + 0 + 371
                           2382 ; genAssign (pointer)
   08B5 3E D8              2383 	ld	a,#0xD8
   08B7 12                 2384 	ld	(de),a
                           2385 ; genPlus
                           2386 ; genPlusIncr
   08B8 11 74 01           2387 	ld	de,#_SpriteData + 0 + 372
                           2388 ; genAssign (pointer)
   08BB 3E D0              2389 	ld	a,#0xD0
   08BD 12                 2390 	ld	(de),a
                           2391 ; genPlus
                           2392 ; genPlusIncr
   08BE 11 75 01           2393 	ld	de,#_SpriteData + 0 + 373
                           2394 ; genAssign (pointer)
   08C1 3E 30              2395 	ld	a,#0x30
   08C3 12                 2396 	ld	(de),a
                           2397 ; genPlus
                           2398 ; genPlusIncr
   08C4 11 76 01           2399 	ld	de,#_SpriteData + 0 + 374
                           2400 ; genAssign (pointer)
   08C7 3E A0              2401 	ld	a,#0xA0
   08C9 12                 2402 	ld	(de),a
                           2403 ; genPlus
                           2404 ; genPlusIncr
   08CA 11 77 01           2405 	ld	de,#_SpriteData + 0 + 375
                           2406 ; genAssign (pointer)
   08CD 3E 60              2407 	ld	a,#0x60
   08CF 12                 2408 	ld	(de),a
                           2409 ; genPlus
                           2410 ; genPlusIncr
   08D0 11 78 01           2411 	ld	de,#_SpriteData + 0 + 376
                           2412 ; genAssign (pointer)
   08D3 3E C0              2413 	ld	a,#0xC0
   08D5 12                 2414 	ld	(de),a
                           2415 ; genPlus
                           2416 ; genPlusIncr
   08D6 11 79 01           2417 	ld	de,#_SpriteData + 0 + 377
                           2418 ; genAssign (pointer)
   08D9 3E C0              2419 	ld	a,#0xC0
   08DB 12                 2420 	ld	(de),a
                           2421 ; genPlus
                           2422 ; genPlusIncr
   08DC 11 7A 01           2423 	ld	de,#_SpriteData + 0 + 378
                           2424 ; genAssign (pointer)
   08DF 3E 00              2425 	ld	a,#0x00
   08E1 12                 2426 	ld	(de),a
                           2427 ; genPlus
                           2428 ; genPlusIncr
   08E2 11 7B 01           2429 	ld	de,#_SpriteData + 0 + 379
                           2430 ; genAssign (pointer)
   08E5 3E 00              2431 	ld	a,#0x00
   08E7 12                 2432 	ld	(de),a
                           2433 ; genPlus
                           2434 ; genPlusIncr
   08E8 11 7C 01           2435 	ld	de,#_SpriteData + 0 + 380
                           2436 ; genAssign (pointer)
   08EB 3E 00              2437 	ld	a,#0x00
   08ED 12                 2438 	ld	(de),a
                           2439 ; genPlus
                           2440 ; genPlusIncr
   08EE 11 7D 01           2441 	ld	de,#_SpriteData + 0 + 381
                           2442 ; genAssign (pointer)
   08F1 3E 00              2443 	ld	a,#0x00
   08F3 12                 2444 	ld	(de),a
                           2445 ; genPlus
                           2446 ; genPlusIncr
   08F4 11 7E 01           2447 	ld	de,#_SpriteData + 0 + 382
                           2448 ; genAssign (pointer)
   08F7 3E 00              2449 	ld	a,#0x00
   08F9 12                 2450 	ld	(de),a
                           2451 ; genPlus
                           2452 ; genPlusIncr
   08FA 11 7F 01           2453 	ld	de,#_SpriteData + 0 + 383
                           2454 ; genAssign (pointer)
   08FD 3E 00              2455 	ld	a,#0x00
   08FF 12                 2456 	ld	(de),a
                           2457 ;	main.c 333
                           2458 ; genAssign
                           2459 ; AOP_HL for _update_count
   0900 21 B7 01           2460 	ld	hl,#_update_count + 0
   0903 36 00              2461 	ld	(hl),#0x00
                           2462 ;	main.c 333
                           2463 ; genAssign
                           2464 ; AOP_HL for _next_sprite_index
   0905 21 B8 01           2465 	ld	hl,#_next_sprite_index + 0
   0908 36 00              2466 	ld	(hl),#0x00
                           2467 ;--------------------------------------------------------
                           2468 ; Home
                           2469 ;--------------------------------------------------------
                           2470 	.area _HOME
                           2471 	.area _CODE
                           2472 ;--------------------------------------------------------
                           2473 ; code
                           2474 ;--------------------------------------------------------
                           2475 	.area _CODE
                           2476 ;	util.c 4
                           2477 ; genLabel
                           2478 ; genFunction
                           2479 ;	---------------------------------
                           2480 ; Function performant_delay
                           2481 ; ---------------------------------
   0000                    2482 ___performant_delay_start:
   0000                    2483 _performant_delay:
   0000 C5                 2484 	push	bc
                           2485 	
                           2486 ;	util.c 7
                           2487 ; genAssign
   0001 0E 00              2488 	ld	c,#0x00
                           2489 ; genLabel
   0003                    2490 00101$:
                           2491 ; genCmpLt
                           2492 ; AOP_STK for 
   0003 AF                 2493 	xor	a,a
   0004 79                 2494 	ld	a,c
   0005 F8 04              2495 	lda	hl,4(sp)
   0007 9E                 2496 	sbc	a,(hl) ; 2
   0008 D2 12 00           2497 	jp	nc,00105$
                           2498 ;	util.c 8
                           2499 ; genCall
   000B CD 00 00           2500 	call	_wait_vbl_done
                           2501 ;	util.c 7
                           2502 ; genPlus
                           2503 ; genPlusIncr
   000E 0C                 2504 	inc	c
                           2505 ; genGoto
   000F C3 03 00           2506 	jp	00101$
                           2507 ; genLabel
   0012                    2508 00105$:
                           2509 ; genEndFunction
                           2510 	
   0012 C1                 2511 	pop	bc
   0013 C9                 2512 	ret
   0014                    2513 ___performant_delay_end:
                           2514 ;	util.c 12
                           2515 ; genLabel
                           2516 ; genFunction
                           2517 ;	---------------------------------
                           2518 ; Function rand_range
                           2519 ; ---------------------------------
   0014                    2520 ___rand_range_start:
   0014                    2521 _rand_range:
   0014 C5                 2522 	push	bc
   0015 E8 FD              2523 	lda	sp,-3(sp)
                           2524 ;	util.c 13
                           2525 ; genCall
   0017 CD 00 00           2526 	call	_rand
                           2527 ; AOP_STK for _rand_range_sloc0_1_0
   001A F8 02              2528 	lda	hl,2(sp)
   001C 73                 2529 	ld	(hl),e
                           2530 ; genMinus
                           2531 ; AOP_STK for 
                           2532 ; AOP_STK for 
   001D F8 09              2533 	lda	hl,9(sp)
   001F 5E                 2534 	ld	e,(hl)
   0020 23                 2535 	inc	hl
   0021 56                 2536 	ld	d,(hl)
   0022 F8 07              2537 	lda	hl,7(sp)
   0024 2A                 2538 	ld	a,(hl+)
   0025 66                 2539 	ld	h,(hl)
   0026 6F                 2540 	ld	l,a
   0027 7B                 2541 	ld	a,e
   0028 95                 2542 	sub	a,l
   0029 5F                 2543 	ld	e,a
   002A 7A                 2544 	ld	a,d
   002B 9C                 2545 	sbc	a,h
   002C 4F                 2546 	ld	c,a
   002D 43                 2547 	ld	b,e
                           2548 ; genPlus
                           2549 ; AOP_STK for _rand_range_sloc1_1_0
                           2550 ; genPlusIncr
                           2551 ;	genPlusIncr failed
   002E 58                 2552 	ld	e,b
   002F 51                 2553 	ld	d,c
   0030 21 01 00           2554 	ld	hl,#0x0001
   0033 19                 2555 	add	hl,de
   0034 7D                 2556 	ld	a,l
   0035 54                 2557 	ld	d,h
   0036 F8 00              2558 	lda	hl,0(sp)
   0038 22                 2559 	ld	(hl+),a
   0039 72                 2560 	ld	(hl),d
                           2561 ; genCast
                           2562 ; AOP_STK for _rand_range_sloc0_1_0
   003A 23                 2563 	inc	hl
   003B 4E                 2564 	ld	c,(hl)
   003C 7E                 2565 	ld	a,(hl)
                           2566 ; genCast: sign extend untested.
   003D 17                 2567 	rla	
   003E 9F                 2568 	sbc	a,a
   003F 47                 2569 	ld	b,a
                           2570 ; genIpush
                           2571 ; AOP_STK for _rand_range_sloc1_1_0
   0040 2B                 2572 	dec	hl
   0041 2B                 2573 	dec	hl
   0042 2A                 2574 	ld	a,(hl+)
   0043 66                 2575 	ld	h,(hl)
   0044 6F                 2576 	ld	l,a
   0045 E5                 2577 	push	hl
                           2578 ; genIpush
   0046 C5                 2579 	push	bc
                           2580 ; genCall
   0047 CD 00 00           2581 	call	__modsint
   004A 42                 2582 	ld	b,d
   004B 4B                 2583 	ld	c,e
   004C E8 04              2584 	lda	sp,4(sp)
                           2585 ; genPlus
                           2586 ; AOP_STK for 
                           2587 ;	genPlusIncr failed
   004E F8 07              2588 	lda	hl,7(sp)
   0050 2A                 2589 	ld	a,(hl+)
   0051 66                 2590 	ld	h,(hl)
   0052 6F                 2591 	ld	l,a
   0053 09                 2592 	add	hl,bc
   0054 4D                 2593 	ld	c,l
   0055 44                 2594 	ld	b,h
                           2595 ; genRet
   0056 59                 2596 	ld	e,c
   0057 50                 2597 	ld	d,b
                           2598 ; genLabel
   0058                    2599 00101$:
                           2600 ; genEndFunction
   0058 E8 03              2601 	lda	sp,3(sp)
   005A C1                 2602 	pop	bc
   005B C9                 2603 	ret
   005C                    2604 ___rand_range_end:
                           2605 ;	sound.c 3
                           2606 ; genLabel
                           2607 ; genFunction
                           2608 ;	---------------------------------
                           2609 ; Function play_sound
                           2610 ; ---------------------------------
   005C                    2611 ___play_sound_start:
   005C                    2612 _play_sound:
                           2613 	
                           2614 ;	sound.c 5
                           2615 ; genAssign
                           2616 ; AOP_SFR for _NR52_REG
   005C 3E 80              2617 	ld	a,#0x80
   005E E0 00              2618 	ldh	(_NR52_REG+0),a
                           2619 ;	sound.c 6
                           2620 ; genAssign
                           2621 ; AOP_SFR for _NR50_REG
   0060 3E 77              2622 	ld	a,#0x77
   0062 E0 00              2623 	ldh	(_NR50_REG+0),a
                           2624 ;	sound.c 7
                           2625 ; genAssign
                           2626 ; AOP_SFR for _NR51_REG
   0064 3E FF              2627 	ld	a,#0xFF
   0066 E0 00              2628 	ldh	(_NR51_REG+0),a
                           2629 ;	sound.c 16
                           2630 ; genAssign
                           2631 ; AOP_SFR for _NR10_REG
   0068 3E 16              2632 	ld	a,#0x16
   006A E0 00              2633 	ldh	(_NR10_REG+0),a
                           2634 ;	sound.c 23
                           2635 ; genAssign
                           2636 ; AOP_SFR for _NR11_REG
   006C 3E 40              2637 	ld	a,#0x40
   006E E0 00              2638 	ldh	(_NR11_REG+0),a
                           2639 ;	sound.c 32
                           2640 ; genAssign
                           2641 ; AOP_SFR for _NR12_REG
   0070 3E 73              2642 	ld	a,#0x73
   0072 E0 00              2643 	ldh	(_NR12_REG+0),a
                           2644 ;	sound.c 37
                           2645 ; genAssign
                           2646 ; AOP_SFR for _NR13_REG
   0074 3E 00              2647 	ld	a,#0x00
   0076 E0 00              2648 	ldh	(_NR13_REG+0),a
                           2649 ;	sound.c 46
                           2650 ; genAssign
                           2651 ; AOP_SFR for _NR14_REG
   0078 3E C3              2652 	ld	a,#0xC3
   007A E0 00              2653 	ldh	(_NR14_REG+0),a
                           2654 ; genLabel
   007C                    2655 00101$:
                           2656 ; genEndFunction
                           2657 	
   007C C9                 2658 	ret
   007D                    2659 ___play_sound_end:
                           2660 ;	main.c 19
                           2661 ; genLabel
                           2662 ; genFunction
                           2663 ;	---------------------------------
                           2664 ; Function move_game_character
                           2665 ; ---------------------------------
   007D                    2666 ___move_game_character_start:
   007D                    2667 _move_game_character:
   007D C5                 2668 	push	bc
   007E E8 FD              2669 	lda	sp,-3(sp)
                           2670 ;	main.c 20
                           2671 ; genAssign
                           2672 ; AOP_STK for 
                           2673 ; AOP_STK for _move_game_character_sloc1_1_0
   0080 F8 07              2674 	lda	hl,7(sp)
   0082 2A                 2675 	ld	a,(hl+)
   0083 5E                 2676 	ld	e,(hl)
   0084 F8 00              2677 	lda	hl,0(sp)
   0086 22                 2678 	ld	(hl+),a
   0087 73                 2679 	ld	(hl),e
                           2680 ; genPointerGet
                           2681 ; AOP_STK for _move_game_character_sloc1_1_0
                           2682 ; AOP_STK for _move_game_character_sloc0_1_0
   0088 2B                 2683 	dec	hl
   0089 5E                 2684 	ld	e,(hl)
   008A 23                 2685 	inc	hl
   008B 56                 2686 	ld	d,(hl)
   008C 1A                 2687 	ld	a,(de)
   008D 23                 2688 	inc	hl
   008E 77                 2689 	ld	(hl),a
                           2690 ; genIpush
                           2691 ; AOP_STK for 
   008F F8 0A              2692 	lda	hl,10(sp)
   0091 7E                 2693 	ld	a,(hl)
   0092 F5                 2694 	push	af
   0093 33                 2695 	inc	sp
                           2696 ; genIpush
                           2697 ; AOP_STK for 
   0094 2B                 2698 	dec	hl
   0095 7E                 2699 	ld	a,(hl)
   0096 F5                 2700 	push	af
   0097 33                 2701 	inc	sp
                           2702 ; genIpush
                           2703 ; AOP_STK for _move_game_character_sloc0_1_0
   0098 F8 04              2704 	lda	hl,4(sp)
   009A 7E                 2705 	ld	a,(hl)
   009B F5                 2706 	push	af
   009C 33                 2707 	inc	sp
                           2708 ; genCall
   009D CD 00 00           2709 	call	_move_sprite
   00A0 E8 03              2710 	lda	sp,3(sp)
                           2711 ;	main.c 21
                           2712 ; genPlus
                           2713 ; AOP_STK for 
                           2714 ; genPlusIncr
                           2715 ;	genPlusIncr failed
   00A2 F8 09              2716 	lda	hl,9(sp)
   00A4 7E                 2717 	ld	a,(hl)
   00A5 C6 08              2718 	add	a,#0x08
   00A7 4F                 2719 	ld	c,a
                           2720 ; genPlus
                           2721 ; AOP_STK for _move_game_character_sloc1_1_0
                           2722 ; genPlusIncr
   00A8 F8 00              2723 	lda	hl,0(sp)
   00AA 5E                 2724 	ld	e,(hl)
   00AB 23                 2725 	inc	hl
   00AC 56                 2726 	ld	d,(hl)
   00AD 13                 2727 	inc	de
                           2728 ; genPointerGet
   00AE 1A                 2729 	ld	a,(de)
   00AF 47                 2730 	ld	b,a
                           2731 ; genIpush
                           2732 ; AOP_STK for 
   00B0 F8 0A              2733 	lda	hl,10(sp)
   00B2 7E                 2734 	ld	a,(hl)
   00B3 F5                 2735 	push	af
   00B4 33                 2736 	inc	sp
                           2737 ; genIpush
   00B5 79                 2738 	ld	a,c
   00B6 F5                 2739 	push	af
   00B7 33                 2740 	inc	sp
                           2741 ; genIpush
   00B8 78                 2742 	ld	a,b
   00B9 F5                 2743 	push	af
   00BA 33                 2744 	inc	sp
                           2745 ; genCall
   00BB CD 00 00           2746 	call	_move_sprite
   00BE E8 03              2747 	lda	sp,3(sp)
                           2748 ;	main.c 22
                           2749 ; genPlus
                           2750 ; AOP_STK for 
                           2751 ; AOP_STK for _move_game_character_sloc0_1_0
                           2752 ; genPlusIncr
                           2753 ;	genPlusIncr failed
   00C0 F8 0A              2754 	lda	hl,10(sp)
   00C2 7E                 2755 	ld	a,(hl)
   00C3 C6 08              2756 	add	a,#0x08
   00C5 F8 02              2757 	lda	hl,2(sp)
   00C7 77                 2758 	ld	(hl),a
                           2759 ; genPlus
                           2760 ; AOP_STK for _move_game_character_sloc1_1_0
                           2761 ; genPlusIncr
   00C8 2B                 2762 	dec	hl
   00C9 2B                 2763 	dec	hl
   00CA 5E                 2764 	ld	e,(hl)
   00CB 23                 2765 	inc	hl
   00CC 56                 2766 	ld	d,(hl)
   00CD 13                 2767 	inc	de
   00CE 13                 2768 	inc	de
                           2769 ; genPointerGet
   00CF 1A                 2770 	ld	a,(de)
   00D0 47                 2771 	ld	b,a
                           2772 ; genIpush
                           2773 ; AOP_STK for _move_game_character_sloc0_1_0
   00D1 23                 2774 	inc	hl
   00D2 7E                 2775 	ld	a,(hl)
   00D3 F5                 2776 	push	af
   00D4 33                 2777 	inc	sp
                           2778 ; genIpush
                           2779 ; AOP_STK for 
   00D5 F8 0A              2780 	lda	hl,10(sp)
   00D7 7E                 2781 	ld	a,(hl)
   00D8 F5                 2782 	push	af
   00D9 33                 2783 	inc	sp
                           2784 ; genIpush
   00DA 78                 2785 	ld	a,b
   00DB F5                 2786 	push	af
   00DC 33                 2787 	inc	sp
                           2788 ; genCall
   00DD CD 00 00           2789 	call	_move_sprite
   00E0 E8 03              2790 	lda	sp,3(sp)
                           2791 ;	main.c 23
                           2792 ; genPlus
                           2793 ; AOP_STK for _move_game_character_sloc1_1_0
                           2794 ; genPlusIncr
                           2795 ;	genPlusIncr failed
   00E2 F8 00              2796 	lda	hl,0(sp)
   00E4 5E                 2797 	ld	e,(hl)
   00E5 23                 2798 	inc	hl
   00E6 56                 2799 	ld	d,(hl)
   00E7 21 03 00           2800 	ld	hl,#0x0003
   00EA 19                 2801 	add	hl,de
   00EB 5D                 2802 	ld	e,l
   00EC 54                 2803 	ld	d,h
                           2804 ; genPointerGet
   00ED 1A                 2805 	ld	a,(de)
   00EE 47                 2806 	ld	b,a
                           2807 ; genIpush
                           2808 ; AOP_STK for _move_game_character_sloc0_1_0
   00EF F8 02              2809 	lda	hl,2(sp)
   00F1 7E                 2810 	ld	a,(hl)
   00F2 F5                 2811 	push	af
   00F3 33                 2812 	inc	sp
                           2813 ; genIpush
   00F4 79                 2814 	ld	a,c
   00F5 F5                 2815 	push	af
   00F6 33                 2816 	inc	sp
                           2817 ; genIpush
   00F7 78                 2818 	ld	a,b
   00F8 F5                 2819 	push	af
   00F9 33                 2820 	inc	sp
                           2821 ; genCall
   00FA CD 00 00           2822 	call	_move_sprite
   00FD E8 03              2823 	lda	sp,3(sp)
                           2824 ; genLabel
   00FF                    2825 00101$:
                           2826 ; genEndFunction
   00FF E8 03              2827 	lda	sp,3(sp)
   0101 C1                 2828 	pop	bc
   0102 C9                 2829 	ret
   0103                    2830 ___move_game_character_end:
                           2831 ;	main.c 26
                           2832 ; genLabel
                           2833 ; genFunction
                           2834 ;	---------------------------------
                           2835 ; Function update_game_character
                           2836 ; ---------------------------------
   0103                    2837 ___update_game_character_start:
   0103                    2838 _update_game_character:
   0103 C5                 2839 	push	bc
   0104 E8 F9              2840 	lda	sp,-7(sp)
                           2841 ;	main.c 27
                           2842 ; genAssign
                           2843 ; AOP_STK for 
                           2844 ; AOP_STK for _update_game_character_sloc1_1_0
   0106 F8 0B              2845 	lda	hl,11(sp)
   0108 2A                 2846 	ld	a,(hl+)
   0109 5E                 2847 	ld	e,(hl)
   010A F8 03              2848 	lda	hl,3(sp)
   010C 22                 2849 	ld	(hl+),a
   010D 73                 2850 	ld	(hl),e
                           2851 ; genPlus
                           2852 ; AOP_STK for _update_game_character_sloc1_1_0
                           2853 ; AOP_STK for _update_game_character_sloc0_1_0
                           2854 ; genPlusIncr
                           2855 ;	genPlusIncr failed
   010E 2B                 2856 	dec	hl
   010F 5E                 2857 	ld	e,(hl)
   0110 23                 2858 	inc	hl
   0111 56                 2859 	ld	d,(hl)
   0112 21 05 00           2860 	ld	hl,#0x0005
   0115 19                 2861 	add	hl,de
   0116 7D                 2862 	ld	a,l
   0117 54                 2863 	ld	d,h
   0118 F8 05              2864 	lda	hl,5(sp)
   011A 22                 2865 	ld	(hl+),a
   011B 72                 2866 	ld	(hl),d
                           2867 ; genPointerGet
                           2868 ; AOP_STK for _update_game_character_sloc0_1_0
   011C 2B                 2869 	dec	hl
   011D 5E                 2870 	ld	e,(hl)
   011E 23                 2871 	inc	hl
   011F 56                 2872 	ld	d,(hl)
   0120 1A                 2873 	ld	a,(de)
   0121 4F                 2874 	ld	c,a
                           2875 ; genPlus
                           2876 ; AOP_STK for _update_game_character_sloc1_1_0
                           2877 ; genPlusIncr
                           2878 ;	genPlusIncr failed
   0122 F8 03              2879 	lda	hl,3(sp)
   0124 5E                 2880 	ld	e,(hl)
   0125 23                 2881 	inc	hl
   0126 56                 2882 	ld	d,(hl)
   0127 21 07 00           2883 	ld	hl,#0x0007
   012A 19                 2884 	add	hl,de
   012B 5D                 2885 	ld	e,l
   012C 54                 2886 	ld	d,h
                           2887 ; genPointerGet
   012D 1A                 2888 	ld	a,(de)
                           2889 ; genPlus
                           2890 ;	genPlusIncr failed
   012E 81                 2891 	add	a,c
   012F 4F                 2892 	ld	c,a
                           2893 ; genAssign (pointer)
                           2894 ; AOP_STK for _update_game_character_sloc0_1_0
   0130 F8 05              2895 	lda	hl,5(sp)
   0132 5E                 2896 	ld	e,(hl)
   0133 23                 2897 	inc	hl
   0134 56                 2898 	ld	d,(hl)
   0135 79                 2899 	ld	a,c
   0136 12                 2900 	ld	(de),a
                           2901 ;	main.c 28
                           2902 ; genPlus
                           2903 ; AOP_STK for _update_game_character_sloc1_1_0
                           2904 ; AOP_STK for _update_game_character_sloc3_1_0
                           2905 ; genPlusIncr
                           2906 ;	genPlusIncr failed
   0137 F8 03              2907 	lda	hl,3(sp)
   0139 5E                 2908 	ld	e,(hl)
   013A 23                 2909 	inc	hl
   013B 56                 2910 	ld	d,(hl)
   013C 21 06 00           2911 	ld	hl,#0x0006
   013F 19                 2912 	add	hl,de
   0140 7D                 2913 	ld	a,l
   0141 54                 2914 	ld	d,h
   0142 F8 00              2915 	lda	hl,0(sp)
   0144 22                 2916 	ld	(hl+),a
   0145 72                 2917 	ld	(hl),d
                           2918 ; genPointerGet
                           2919 ; AOP_STK for _update_game_character_sloc3_1_0
                           2920 ; AOP_STK for _update_game_character_sloc2_1_0
   0146 2B                 2921 	dec	hl
   0147 5E                 2922 	ld	e,(hl)
   0148 23                 2923 	inc	hl
   0149 56                 2924 	ld	d,(hl)
   014A 1A                 2925 	ld	a,(de)
   014B 23                 2926 	inc	hl
                           2927 ; genPlus
                           2928 ; AOP_STK for _update_game_character_sloc1_1_0
                           2929 ; genPlusIncr
                           2930 ;	genPlusIncr failed
   014C 22                 2931 	ld	(hl+),a
   014D 5E                 2932 	ld	e,(hl)
   014E 23                 2933 	inc	hl
   014F 56                 2934 	ld	d,(hl)
   0150 21 08 00           2935 	ld	hl,#0x0008
   0153 19                 2936 	add	hl,de
   0154 5D                 2937 	ld	e,l
   0155 54                 2938 	ld	d,h
                           2939 ; genPointerGet
   0156 1A                 2940 	ld	a,(de)
                           2941 ; genPlus
                           2942 ; AOP_STK for _update_game_character_sloc2_1_0
                           2943 ;	genPlusIncr failed
   0157 F8 02              2944 	lda	hl,2(sp)
   0159 86                 2945 	add	a,(hl)
   015A 4F                 2946 	ld	c,a
                           2947 ; genAssign (pointer)
                           2948 ; AOP_STK for _update_game_character_sloc3_1_0
   015B 2B                 2949 	dec	hl
   015C 2B                 2950 	dec	hl
   015D 5E                 2951 	ld	e,(hl)
   015E 23                 2952 	inc	hl
   015F 56                 2953 	ld	d,(hl)
   0160 79                 2954 	ld	a,c
   0161 12                 2955 	ld	(de),a
                           2956 ;	main.c 77
                           2957 ; genPointerGet
                           2958 ; AOP_STK for _update_game_character_sloc3_1_0
   0162 2B                 2959 	dec	hl
   0163 5E                 2960 	ld	e,(hl)
   0164 23                 2961 	inc	hl
   0165 56                 2962 	ld	d,(hl)
   0166 1A                 2963 	ld	a,(de)
   0167 47                 2964 	ld	b,a
                           2965 ; genCmpGt
   0168 AF                 2966 	xor	a,a
   0169 3E C8              2967 	ld	a,#0xC8
   016B 99                 2968 	sbc	a,c ; 2
   016C D2 79 01           2969 	jp	nc,00104$
                           2970 ;	main.c 78
                           2971 ; genAssign (pointer)
                           2972 ; AOP_STK for _update_game_character_sloc3_1_0
   016F 2B                 2973 	dec	hl
   0170 5E                 2974 	ld	e,(hl)
   0171 23                 2975 	inc	hl
   0172 56                 2976 	ld	d,(hl)
   0173 3E A0              2977 	ld	a,#0xA0
   0175 12                 2978 	ld	(de),a
                           2979 ; genGoto
   0176 C3 88 01           2980 	jp	00105$
                           2981 ; genLabel
   0179                    2982 00104$:
                           2983 ;	main.c 79
                           2984 ; genCmpGt
   0179 AF                 2985 	xor	a,a
   017A 3E A0              2986 	ld	a,#0xA0
   017C 98                 2987 	sbc	a,b ; 2
   017D D2 88 01           2988 	jp	nc,00105$
                           2989 ;	main.c 80
                           2990 ; genAssign (pointer)
                           2991 ; AOP_STK for _update_game_character_sloc3_1_0
   0180 F8 00              2992 	lda	hl,0(sp)
   0182 5E                 2993 	ld	e,(hl)
   0183 23                 2994 	inc	hl
   0184 56                 2995 	ld	d,(hl)
   0185 3E 00              2996 	ld	a,#0x00
   0187 12                 2997 	ld	(de),a
                           2998 ; genLabel
   0188                    2999 00105$:
                           3000 ;	main.c 83
                           3001 ; genPointerGet
                           3002 ; AOP_STK for _update_game_character_sloc0_1_0
   0188 F8 05              3003 	lda	hl,5(sp)
   018A 5E                 3004 	ld	e,(hl)
   018B 23                 3005 	inc	hl
   018C 56                 3006 	ld	d,(hl)
   018D 1A                 3007 	ld	a,(de)
   018E 4F                 3008 	ld	c,a
                           3009 ; genCmpGt
   018F AF                 3010 	xor	a,a
   0190 3E C8              3011 	ld	a,#0xC8
   0192 99                 3012 	sbc	a,c ; 2
   0193 D2 A0 01           3013 	jp	nc,00109$
                           3014 ;	main.c 84
                           3015 ; genAssign (pointer)
                           3016 ; AOP_STK for _update_game_character_sloc0_1_0
   0196 2B                 3017 	dec	hl
   0197 5E                 3018 	ld	e,(hl)
   0198 23                 3019 	inc	hl
   0199 56                 3020 	ld	d,(hl)
   019A 3E A0              3021 	ld	a,#0xA0
   019C 12                 3022 	ld	(de),a
                           3023 ; genGoto
   019D C3 B5 01           3024 	jp	00110$
                           3025 ; genLabel
   01A0                    3026 00109$:
                           3027 ;	main.c 85
                           3028 ; genPointerGet
                           3029 ; AOP_STK for _update_game_character_sloc0_1_0
   01A0 F8 05              3030 	lda	hl,5(sp)
   01A2 5E                 3031 	ld	e,(hl)
   01A3 23                 3032 	inc	hl
   01A4 56                 3033 	ld	d,(hl)
   01A5 1A                 3034 	ld	a,(de)
   01A6 4F                 3035 	ld	c,a
                           3036 ; genCmpGt
   01A7 AF                 3037 	xor	a,a
   01A8 3E A8              3038 	ld	a,#0xA8
   01AA 99                 3039 	sbc	a,c ; 2
   01AB D2 B5 01           3040 	jp	nc,00110$
                           3041 ;	main.c 86
                           3042 ; genAssign (pointer)
                           3043 ; AOP_STK for _update_game_character_sloc0_1_0
   01AE 2B                 3044 	dec	hl
   01AF 5E                 3045 	ld	e,(hl)
   01B0 23                 3046 	inc	hl
   01B1 56                 3047 	ld	d,(hl)
   01B2 3E 00              3048 	ld	a,#0x00
   01B4 12                 3049 	ld	(de),a
                           3050 ; genLabel
   01B5                    3051 00110$:
                           3052 ;	main.c 90
                           3053 ; genPointerGet
                           3054 ; AOP_STK for _update_game_character_sloc3_1_0
   01B5 F8 00              3055 	lda	hl,0(sp)
   01B7 5E                 3056 	ld	e,(hl)
   01B8 23                 3057 	inc	hl
   01B9 56                 3058 	ld	d,(hl)
   01BA 1A                 3059 	ld	a,(de)
   01BB 4F                 3060 	ld	c,a
                           3061 ; genPointerGet
                           3062 ; AOP_STK for _update_game_character_sloc0_1_0
   01BC F8 05              3063 	lda	hl,5(sp)
   01BE 5E                 3064 	ld	e,(hl)
   01BF 23                 3065 	inc	hl
   01C0 56                 3066 	ld	d,(hl)
   01C1 1A                 3067 	ld	a,(de)
   01C2 47                 3068 	ld	b,a
                           3069 ; genIpush
   01C3 79                 3070 	ld	a,c
   01C4 F5                 3071 	push	af
   01C5 33                 3072 	inc	sp
                           3073 ; genIpush
   01C6 78                 3074 	ld	a,b
   01C7 F5                 3075 	push	af
   01C8 33                 3076 	inc	sp
                           3077 ; genIpush
                           3078 ; AOP_STK for _update_game_character_sloc1_1_0
   01C9 F8 05              3079 	lda	hl,5(sp)
   01CB 2A                 3080 	ld	a,(hl+)
   01CC 66                 3081 	ld	h,(hl)
   01CD 6F                 3082 	ld	l,a
   01CE E5                 3083 	push	hl
                           3084 ; genCall
   01CF CD 7D 00           3085 	call	_move_game_character
   01D2 E8 04              3086 	lda	sp,4(sp)
                           3087 ; genLabel
   01D4                    3088 00111$:
                           3089 ; genEndFunction
   01D4 E8 07              3090 	lda	sp,7(sp)
   01D6 C1                 3091 	pop	bc
   01D7 C9                 3092 	ret
   01D8                    3093 ___update_game_character_end:
                           3094 ;	main.c 93
                           3095 ; genLabel
                           3096 ; genFunction
                           3097 ;	---------------------------------
                           3098 ; Function check_collision
                           3099 ; ---------------------------------
   01D8                    3100 ___check_collision_start:
   01D8                    3101 _check_collision:
   01D8 C5                 3102 	push	bc
   01D9 E8 F8              3103 	lda	sp,-8(sp)
                           3104 ;	main.c 94
                           3105 ; genAssign
                           3106 ; AOP_STK for 
                           3107 ; AOP_STK for _check_collision_sloc0_1_0
   01DB F8 0C              3108 	lda	hl,12(sp)
   01DD 2A                 3109 	ld	a,(hl+)
   01DE 5E                 3110 	ld	e,(hl)
   01DF F8 06              3111 	lda	hl,6(sp)
   01E1 22                 3112 	ld	(hl+),a
   01E2 73                 3113 	ld	(hl),e
                           3114 ; genPlus
                           3115 ; AOP_STK for _check_collision_sloc0_1_0
                           3116 ; genPlusIncr
                           3117 ;	genPlusIncr failed
   01E3 2B                 3118 	dec	hl
   01E4 5E                 3119 	ld	e,(hl)
   01E5 23                 3120 	inc	hl
   01E6 56                 3121 	ld	d,(hl)
   01E7 21 05 00           3122 	ld	hl,#0x0005
   01EA 19                 3123 	add	hl,de
   01EB 5D                 3124 	ld	e,l
   01EC 54                 3125 	ld	d,h
                           3126 ; genPointerGet
                           3127 ; AOP_STK for _check_collision_sloc1_1_0
   01ED 1A                 3128 	ld	a,(de)
   01EE F8 05              3129 	lda	hl,5(sp)
   01F0 77                 3130 	ld	(hl),a
                           3131 ; genAssign
                           3132 ; AOP_STK for 
                           3133 ; AOP_STK for _check_collision_sloc2_1_0
   01F1 F8 0E              3134 	lda	hl,14(sp)
   01F3 2A                 3135 	ld	a,(hl+)
   01F4 5E                 3136 	ld	e,(hl)
   01F5 F8 03              3137 	lda	hl,3(sp)
   01F7 22                 3138 	ld	(hl+),a
   01F8 73                 3139 	ld	(hl),e
                           3140 ; genPlus
                           3141 ; AOP_STK for _check_collision_sloc2_1_0
                           3142 ; genPlusIncr
                           3143 ;	genPlusIncr failed
   01F9 2B                 3144 	dec	hl
   01FA 5E                 3145 	ld	e,(hl)
   01FB 23                 3146 	inc	hl
   01FC 56                 3147 	ld	d,(hl)
   01FD 21 05 00           3148 	ld	hl,#0x0005
   0200 19                 3149 	add	hl,de
   0201 5D                 3150 	ld	e,l
   0202 54                 3151 	ld	d,h
                           3152 ; genPointerGet
                           3153 ; AOP_STK for _check_collision_sloc5_1_0
   0203 1A                 3154 	ld	a,(de)
   0204 F8 00              3155 	lda	hl,0(sp)
   0206 77                 3156 	ld	(hl),a
                           3157 ; genCmpLt
                           3158 ; AOP_STK for _check_collision_sloc1_1_0
                           3159 ; AOP_STK for _check_collision_sloc5_1_0
   0207 AF                 3160 	xor	a,a
   0208 F8 05              3161 	lda	hl,5(sp)
   020A 7E                 3162 	ld	a,(hl)
   020B F8 00              3163 	lda	hl,0(sp)
   020D 9E                 3164 	sbc	a,(hl) ; 2
   020E 3E 00              3165 	ld	a,#0x00
   0210 17                 3166 	rla
   0211 47                 3167 	ld	b,a
                           3168 ; genNot
                           3169 ; AOP_STK for _check_collision_sloc3_1_0
   0212 AF                 3170 	xor	a,a
   0213 B0                 3171 	or	a,b
   0214 D6 01              3172 	sub	a,#0x01
   0216 3E 00              3173 	ld	a,#0x00
   0218 17                 3174 	rla
   0219 23                 3175 	inc	hl
   021A 23                 3176 	inc	hl
                           3177 ; genPlus
                           3178 ; AOP_STK for _check_collision_sloc2_1_0
                           3179 ; genPlusIncr
                           3180 ;	genPlusIncr failed
   021B 22                 3181 	ld	(hl+),a
   021C 5E                 3182 	ld	e,(hl)
   021D 23                 3183 	inc	hl
   021E 56                 3184 	ld	d,(hl)
   021F 21 09 00           3185 	ld	hl,#0x0009
   0222 19                 3186 	add	hl,de
   0223 5D                 3187 	ld	e,l
   0224 54                 3188 	ld	d,h
                           3189 ; genPointerGet
   0225 1A                 3190 	ld	a,(de)
                           3191 ; genPlus
                           3192 ; AOP_STK for _check_collision_sloc5_1_0
                           3193 ;	genPlusIncr failed
   0226 F8 00              3194 	lda	hl,0(sp)
   0228 86                 3195 	add	a,(hl)
   0229 47                 3196 	ld	b,a
                           3197 ; genCmpGt
                           3198 ; AOP_STK for _check_collision_sloc1_1_0
   022A AF                 3199 	xor	a,a
   022B 78                 3200 	ld	a,b
   022C F8 05              3201 	lda	hl,5(sp)
   022E 9E                 3202 	sbc	a,(hl) ; 2
   022F 3E 00              3203 	ld	a,#0x00
   0231 17                 3204 	rla
   0232 47                 3205 	ld	b,a
                           3206 ; genNot
   0233 AF                 3207 	xor	a,a
   0234 B0                 3208 	or	a,b
   0235 D6 01              3209 	sub	a,#0x01
   0237 3E 00              3210 	ld	a,#0x00
   0239 17                 3211 	rla
   023A 47                 3212 	ld	b,a
                           3213 ; genAndOp
                           3214 ; AOP_STK for _check_collision_sloc3_1_0
   023B AF                 3215 	xor	a,a
   023C F8 02              3216 	lda	hl,2(sp)
   023E B6                 3217 	or	a,(hl)
   023F 28 02              3218 	jr	z,00103$
   0241 AF                 3219 	xor	a,a
   0242 B0                 3220 	or	a,b
   0243                    3221 00103$:
   0243 28 02              3222 	jr	z,00104$
   0245 3E 01              3223 	ld	a,#0x01
   0247                    3224 00104$:
   0247 F8 02              3225 	lda	hl,2(sp)
   0249 77                 3226 	ld	(hl),a
                           3227 ; genPlus
                           3228 ; AOP_STK for _check_collision_sloc0_1_0
                           3229 ; genPlusIncr
                           3230 ;	genPlusIncr failed
   024A F8 06              3231 	lda	hl,6(sp)
   024C 5E                 3232 	ld	e,(hl)
   024D 23                 3233 	inc	hl
   024E 56                 3234 	ld	d,(hl)
   024F 21 06 00           3235 	ld	hl,#0x0006
   0252 19                 3236 	add	hl,de
   0253 5D                 3237 	ld	e,l
   0254 54                 3238 	ld	d,h
                           3239 ; genPointerGet
                           3240 ; AOP_STK for _check_collision_sloc4_1_0
   0255 1A                 3241 	ld	a,(de)
   0256 F8 01              3242 	lda	hl,1(sp)
                           3243 ; genPlus
                           3244 ; AOP_STK for _check_collision_sloc2_1_0
                           3245 ; genPlusIncr
                           3246 ;	genPlusIncr failed
   0258 22                 3247 	ld	(hl+),a
   0259 23                 3248 	inc	hl
   025A 5E                 3249 	ld	e,(hl)
   025B 23                 3250 	inc	hl
   025C 56                 3251 	ld	d,(hl)
   025D 21 06 00           3252 	ld	hl,#0x0006
   0260 19                 3253 	add	hl,de
   0261 5D                 3254 	ld	e,l
   0262 54                 3255 	ld	d,h
                           3256 ; genPointerGet
   0263 1A                 3257 	ld	a,(de)
   0264 47                 3258 	ld	b,a
                           3259 ; genCmpLt
                           3260 ; AOP_STK for _check_collision_sloc4_1_0
   0265 AF                 3261 	xor	a,a
   0266 F8 01              3262 	lda	hl,1(sp)
   0268 7E                 3263 	ld	a,(hl)
   0269 98                 3264 	sbc	a,b ; 2
   026A 3E 00              3265 	ld	a,#0x00
   026C 17                 3266 	rla
   026D 4F                 3267 	ld	c,a
                           3268 ; genNot
   026E AF                 3269 	xor	a,a
   026F B1                 3270 	or	a,c
   0270 D6 01              3271 	sub	a,#0x01
   0272 3E 00              3272 	ld	a,#0x00
   0274 17                 3273 	rla
   0275 4F                 3274 	ld	c,a
                           3275 ; genAndOp
                           3276 ; AOP_STK for _check_collision_sloc3_1_0
   0276 AF                 3277 	xor	a,a
   0277 23                 3278 	inc	hl
   0278 B6                 3279 	or	a,(hl)
   0279 28 02              3280 	jr	z,00105$
   027B AF                 3281 	xor	a,a
   027C B1                 3282 	or	a,c
   027D                    3283 00105$:
   027D 28 02              3284 	jr	z,00106$
   027F 3E 01              3285 	ld	a,#0x01
   0281                    3286 00106$:
   0281 F8 02              3287 	lda	hl,2(sp)
                           3288 ; genPlus
                           3289 ; AOP_STK for _check_collision_sloc2_1_0
                           3290 ; genPlusIncr
                           3291 ;	genPlusIncr failed
   0283 22                 3292 	ld	(hl+),a
   0284 5E                 3293 	ld	e,(hl)
   0285 23                 3294 	inc	hl
   0286 56                 3295 	ld	d,(hl)
   0287 21 0A 00           3296 	ld	hl,#0x000A
   028A 19                 3297 	add	hl,de
   028B 5D                 3298 	ld	e,l
   028C 54                 3299 	ld	d,h
                           3300 ; genPointerGet
   028D 1A                 3301 	ld	a,(de)
                           3302 ; genPlus
                           3303 ;	genPlusIncr failed
   028E 80                 3304 	add	a,b
   028F 4F                 3305 	ld	c,a
                           3306 ; genCmpGt
                           3307 ; AOP_STK for _check_collision_sloc4_1_0
   0290 AF                 3308 	xor	a,a
   0291 79                 3309 	ld	a,c
   0292 F8 01              3310 	lda	hl,1(sp)
   0294 9E                 3311 	sbc	a,(hl) ; 2
   0295 3E 00              3312 	ld	a,#0x00
   0297 17                 3313 	rla
   0298 4F                 3314 	ld	c,a
                           3315 ; genNot
   0299 AF                 3316 	xor	a,a
   029A B1                 3317 	or	a,c
   029B D6 01              3318 	sub	a,#0x01
   029D 3E 00              3319 	ld	a,#0x00
   029F 17                 3320 	rla
   02A0 4F                 3321 	ld	c,a
                           3322 ; genAndOp
                           3323 ; AOP_STK for _check_collision_sloc3_1_0
   02A1 AF                 3324 	xor	a,a
   02A2 23                 3325 	inc	hl
   02A3 B6                 3326 	or	a,(hl)
   02A4 28 02              3327 	jr	z,00107$
   02A6 AF                 3328 	xor	a,a
   02A7 B1                 3329 	or	a,c
   02A8                    3330 00107$:
   02A8 28 02              3331 	jr	z,00108$
   02AA 3E 01              3332 	ld	a,#0x01
   02AC                    3333 00108$:
   02AC F8 02              3334 	lda	hl,2(sp)
   02AE 77                 3335 	ld	(hl),a
                           3336 ;	main.c 95
                           3337 ; genCmpLt
                           3338 ; AOP_STK for _check_collision_sloc5_1_0
                           3339 ; AOP_STK for _check_collision_sloc1_1_0
   02AF AF                 3340 	xor	a,a
   02B0 2B                 3341 	dec	hl
   02B1 2B                 3342 	dec	hl
   02B2 7E                 3343 	ld	a,(hl)
   02B3 F8 05              3344 	lda	hl,5(sp)
   02B5 9E                 3345 	sbc	a,(hl) ; 2
   02B6 3E 00              3346 	ld	a,#0x00
   02B8 17                 3347 	rla
   02B9 4F                 3348 	ld	c,a
                           3349 ; genNot
                           3350 ; AOP_STK for _check_collision_sloc2_1_0
   02BA AF                 3351 	xor	a,a
   02BB B1                 3352 	or	a,c
   02BC D6 01              3353 	sub	a,#0x01
   02BE 3E 00              3354 	ld	a,#0x00
   02C0 17                 3355 	rla
   02C1 2B                 3356 	dec	hl
   02C2 2B                 3357 	dec	hl
   02C3 77                 3358 	ld	(hl),a
                           3359 ; genPlus
                           3360 ; AOP_STK for _check_collision_sloc0_1_0
                           3361 ; genPlusIncr
                           3362 ;	genPlusIncr failed
   02C4 F8 06              3363 	lda	hl,6(sp)
   02C6 5E                 3364 	ld	e,(hl)
   02C7 23                 3365 	inc	hl
   02C8 56                 3366 	ld	d,(hl)
   02C9 21 09 00           3367 	ld	hl,#0x0009
   02CC 19                 3368 	add	hl,de
   02CD 5D                 3369 	ld	e,l
   02CE 54                 3370 	ld	d,h
                           3371 ; genPointerGet
   02CF 1A                 3372 	ld	a,(de)
                           3373 ; genPlus
                           3374 ; AOP_STK for _check_collision_sloc1_1_0
                           3375 ;	genPlusIncr failed
   02D0 F8 05              3376 	lda	hl,5(sp)
   02D2 86                 3377 	add	a,(hl)
   02D3 4F                 3378 	ld	c,a
                           3379 ; genCmpGt
                           3380 ; AOP_STK for _check_collision_sloc5_1_0
   02D4 AF                 3381 	xor	a,a
   02D5 79                 3382 	ld	a,c
   02D6 F8 00              3383 	lda	hl,0(sp)
   02D8 9E                 3384 	sbc	a,(hl) ; 2
   02D9 3E 00              3385 	ld	a,#0x00
   02DB 17                 3386 	rla
   02DC 4F                 3387 	ld	c,a
                           3388 ; genNot
   02DD AF                 3389 	xor	a,a
   02DE B1                 3390 	or	a,c
   02DF D6 01              3391 	sub	a,#0x01
   02E1 3E 00              3392 	ld	a,#0x00
   02E3 17                 3393 	rla
   02E4 4F                 3394 	ld	c,a
                           3395 ; genAndOp
                           3396 ; AOP_STK for _check_collision_sloc2_1_0
                           3397 ; AOP_STK for _check_collision_sloc5_1_0
   02E5 AF                 3398 	xor	a,a
   02E6 F8 03              3399 	lda	hl,3(sp)
   02E8 B6                 3400 	or	a,(hl)
   02E9 28 02              3401 	jr	z,00109$
   02EB AF                 3402 	xor	a,a
   02EC B1                 3403 	or	a,c
   02ED                    3404 00109$:
   02ED 28 02              3405 	jr	z,00110$
   02EF 3E 01              3406 	ld	a,#0x01
   02F1                    3407 00110$:
   02F1 F8 00              3408 	lda	hl,0(sp)
   02F3 77                 3409 	ld	(hl),a
                           3410 ; genCmpLt
                           3411 ; AOP_STK for _check_collision_sloc4_1_0
   02F4 AF                 3412 	xor	a,a
   02F5 78                 3413 	ld	a,b
   02F6 23                 3414 	inc	hl
   02F7 9E                 3415 	sbc	a,(hl) ; 2
   02F8 3E 00              3416 	ld	a,#0x00
   02FA 17                 3417 	rla
   02FB 4F                 3418 	ld	c,a
                           3419 ; genNot
   02FC AF                 3420 	xor	a,a
   02FD B1                 3421 	or	a,c
   02FE D6 01              3422 	sub	a,#0x01
   0300 3E 00              3423 	ld	a,#0x00
   0302 17                 3424 	rla
   0303 4F                 3425 	ld	c,a
                           3426 ; genAndOp
                           3427 ; AOP_STK for _check_collision_sloc5_1_0
   0304 AF                 3428 	xor	a,a
   0305 2B                 3429 	dec	hl
   0306 B6                 3430 	or	a,(hl)
   0307 28 02              3431 	jr	z,00111$
   0309 AF                 3432 	xor	a,a
   030A B1                 3433 	or	a,c
   030B                    3434 00111$:
   030B 28 02              3435 	jr	z,00112$
   030D 3E 01              3436 	ld	a,#0x01
   030F                    3437 00112$:
   030F F8 00              3438 	lda	hl,0(sp)
   0311 77                 3439 	ld	(hl),a
                           3440 ; genPlus
                           3441 ; AOP_STK for _check_collision_sloc0_1_0
                           3442 ; genPlusIncr
                           3443 ;	genPlusIncr failed
   0312 F8 06              3444 	lda	hl,6(sp)
   0314 5E                 3445 	ld	e,(hl)
   0315 23                 3446 	inc	hl
   0316 56                 3447 	ld	d,(hl)
   0317 21 0A 00           3448 	ld	hl,#0x000A
   031A 19                 3449 	add	hl,de
   031B 5D                 3450 	ld	e,l
   031C 54                 3451 	ld	d,h
                           3452 ; genPointerGet
   031D 1A                 3453 	ld	a,(de)
                           3454 ; genPlus
                           3455 ; AOP_STK for _check_collision_sloc4_1_0
                           3456 ;	genPlusIncr failed
   031E F8 01              3457 	lda	hl,1(sp)
   0320 86                 3458 	add	a,(hl)
   0321 4F                 3459 	ld	c,a
                           3460 ; genCmpGt
   0322 AF                 3461 	xor	a,a
   0323 79                 3462 	ld	a,c
   0324 98                 3463 	sbc	a,b ; 2
   0325 3E 00              3464 	ld	a,#0x00
   0327 17                 3465 	rla
   0328 47                 3466 	ld	b,a
                           3467 ; genNot
   0329 AF                 3468 	xor	a,a
   032A B0                 3469 	or	a,b
   032B D6 01              3470 	sub	a,#0x01
   032D 3E 00              3471 	ld	a,#0x00
   032F 17                 3472 	rla
   0330 47                 3473 	ld	b,a
                           3474 ; genAndOp
                           3475 ; AOP_STK for _check_collision_sloc5_1_0
   0331 AF                 3476 	xor	a,a
   0332 2B                 3477 	dec	hl
   0333 B6                 3478 	or	a,(hl)
   0334 28 02              3479 	jr	z,00113$
   0336 AF                 3480 	xor	a,a
   0337 B0                 3481 	or	a,b
   0338                    3482 00113$:
   0338 28 02              3483 	jr	z,00114$
   033A 3E 01              3484 	ld	a,#0x01
   033C                    3485 00114$:
   033C 47                 3486 	ld	b,a
                           3487 ; genOrOp
                           3488 ; AOP_STK for _check_collision_sloc3_1_0
   033D AF                 3489 	xor	a,a
   033E F8 02              3490 	lda	hl,2(sp)
   0340 B6                 3491 	or	a,(hl)
   0341 20 02              3492 	jr	nz,00115$
   0343 AF                 3493 	xor	a,a
   0344 B0                 3494 	or	a,b
   0345                    3495 00115$:
   0345 28 02              3496 	jr	z,00116$
   0347 3E 01              3497 	ld	a,#0x01
   0349                    3498 00116$:
   0349 47                 3499 	ld	b,a
                           3500 ; genRet
   034A 58                 3501 	ld	e,b
                           3502 ; genLabel
   034B                    3503 00101$:
                           3504 ; genEndFunction
   034B E8 08              3505 	lda	sp,8(sp)
   034D C1                 3506 	pop	bc
   034E C9                 3507 	ret
   034F                    3508 ___check_collision_end:
                           3509 ;	main.c 98
                           3510 ; genLabel
                           3511 ; genFunction
                           3512 ;	---------------------------------
                           3513 ; Function collide_game_characters
                           3514 ; ---------------------------------
   034F                    3515 ___collide_game_characters_start:
   034F                    3516 _collide_game_characters:
   034F C5                 3517 	push	bc
   0350 E8 F2              3518 	lda	sp,-14(sp)
                           3519 ;	main.c 101
                           3520 ; genAssign
                           3521 ; AOP_STK for 
                           3522 ; AOP_STK for _collide_game_characters_sloc1_1_0
   0352 F8 12              3523 	lda	hl,18(sp)
   0354 2A                 3524 	ld	a,(hl+)
   0355 5E                 3525 	ld	e,(hl)
   0356 F8 06              3526 	lda	hl,6(sp)
   0358 22                 3527 	ld	(hl+),a
   0359 73                 3528 	ld	(hl),e
                           3529 ; genPlus
                           3530 ; AOP_STK for _collide_game_characters_sloc1_1_0
                           3531 ; AOP_STK for _collide_game_characters_sloc0_1_0
                           3532 ; genPlusIncr
                           3533 ;	genPlusIncr failed
   035A 2B                 3534 	dec	hl
   035B 5E                 3535 	ld	e,(hl)
   035C 23                 3536 	inc	hl
   035D 56                 3537 	ld	d,(hl)
   035E 21 05 00           3538 	ld	hl,#0x0005
   0361 19                 3539 	add	hl,de
   0362 7D                 3540 	ld	a,l
   0363 54                 3541 	ld	d,h
   0364 F8 08              3542 	lda	hl,8(sp)
   0366 22                 3543 	ld	(hl+),a
   0367 72                 3544 	ld	(hl),d
                           3545 ; genPointerGet
                           3546 ; AOP_STK for _collide_game_characters_sloc0_1_0
                           3547 ; AOP_STK for _collide_game_characters_sloc2_1_0
   0368 2B                 3548 	dec	hl
   0369 5E                 3549 	ld	e,(hl)
   036A 23                 3550 	inc	hl
   036B 56                 3551 	ld	d,(hl)
   036C 1A                 3552 	ld	a,(de)
   036D F8 05              3553 	lda	hl,5(sp)
   036F 77                 3554 	ld	(hl),a
                           3555 ; genAssign
                           3556 ; AOP_STK for 
                           3557 ; AOP_STK for _collide_game_characters_sloc4_1_0
   0370 F8 14              3558 	lda	hl,20(sp)
   0372 2A                 3559 	ld	a,(hl+)
   0373 5E                 3560 	ld	e,(hl)
   0374 F8 01              3561 	lda	hl,1(sp)
   0376 22                 3562 	ld	(hl+),a
   0377 73                 3563 	ld	(hl),e
                           3564 ; genPlus
                           3565 ; AOP_STK for _collide_game_characters_sloc4_1_0
                           3566 ; AOP_STK for _collide_game_characters_sloc3_1_0
                           3567 ; genPlusIncr
                           3568 ;	genPlusIncr failed
   0378 2B                 3569 	dec	hl
   0379 5E                 3570 	ld	e,(hl)
   037A 23                 3571 	inc	hl
   037B 56                 3572 	ld	d,(hl)
   037C 21 05 00           3573 	ld	hl,#0x0005
   037F 19                 3574 	add	hl,de
   0380 7D                 3575 	ld	a,l
   0381 54                 3576 	ld	d,h
   0382 F8 03              3577 	lda	hl,3(sp)
   0384 22                 3578 	ld	(hl+),a
   0385 72                 3579 	ld	(hl),d
                           3580 ; genPointerGet
                           3581 ; AOP_STK for _collide_game_characters_sloc3_1_0
   0386 2B                 3582 	dec	hl
   0387 5E                 3583 	ld	e,(hl)
   0388 23                 3584 	inc	hl
   0389 56                 3585 	ld	d,(hl)
   038A 1A                 3586 	ld	a,(de)
   038B 4F                 3587 	ld	c,a
                           3588 ; genCmpLt
                           3589 ; AOP_STK for _collide_game_characters_sloc2_1_0
   038C AF                 3590 	xor	a,a
   038D 23                 3591 	inc	hl
   038E 7E                 3592 	ld	a,(hl)
   038F 99                 3593 	sbc	a,c ; 2
   0390 D2 E2 03           3594 	jp	nc,00102$
                           3595 ;	main.c 102
                           3596 ; genMinus
                           3597 ; AOP_STK for _collide_game_characters_sloc2_1_0
                           3598 ; AOP_STK for _collide_game_characters_delta_x_1_1
   0393 79                 3599 	ld	a,c
   0394 96                 3600 	sub	a,(hl)
   0395 F8 0D              3601 	lda	hl,13(sp)
   0397 77                 3602 	ld	(hl),a
                           3603 ;	main.c 103
                           3604 ; genPlus
                           3605 ; AOP_STK for _collide_game_characters_sloc1_1_0
                           3606 ; genPlusIncr
                           3607 ;	genPlusIncr failed
   0398 F8 06              3608 	lda	hl,6(sp)
   039A 5E                 3609 	ld	e,(hl)
   039B 23                 3610 	inc	hl
   039C 56                 3611 	ld	d,(hl)
   039D 21 09 00           3612 	ld	hl,#0x0009
   03A0 19                 3613 	add	hl,de
   03A1 5D                 3614 	ld	e,l
   03A2 54                 3615 	ld	d,h
                           3616 ; genPointerGet
                           3617 ; AOP_STK for _collide_game_characters_sloc5_1_0
   03A3 1A                 3618 	ld	a,(de)
   03A4 F8 00              3619 	lda	hl,0(sp)
   03A6 77                 3620 	ld	(hl),a
                           3621 ; genAssign
                           3622 ; AOP_STK for _collide_game_characters_delta_x_1_1
   03A7 F8 0D              3623 	lda	hl,13(sp)
   03A9 46                 3624 	ld	b,(hl)
                           3625 ; genMinus
                           3626 ; AOP_STK for _collide_game_characters_sloc5_1_0
   03AA F8 00              3627 	lda	hl,0(sp)
   03AC 7E                 3628 	ld	a,(hl)
   03AD 90                 3629 	sub	a,b
   03AE 47                 3630 	ld	b,a
                           3631 ; genRightShift
                           3632 ; AOP_STK for _collide_game_characters_move_x_1_1
                           3633 ; shift right 	result 1, left 1
   03AF 78                 3634 	ld	a,b
   03B0 CB 3F              3635 	srl	a
   03B2 F8 0B              3636 	lda	hl,11(sp)
   03B4 77                 3637 	ld	(hl),a
                           3638 ;	main.c 104
                           3639 ; genAssign
                           3640 ; AOP_STK for _collide_game_characters_move_x_1_1
                           3641 ; (registers are the same)
                           3642 ; genMinus
                           3643 ; AOP_STK for _collide_game_characters_sloc2_1_0
                           3644 ; AOP_STK for _collide_game_characters_move_x_1_1
   03B5 F8 05              3645 	lda	hl,5(sp)
   03B7 7E                 3646 	ld	a,(hl)
   03B8 F8 0B              3647 	lda	hl,11(sp)
   03BA 96                 3648 	sub	a,(hl)
   03BB 47                 3649 	ld	b,a
                           3650 ; genMinus
                           3651 ; AOP_STK for _collide_game_characters_sloc5_1_0
   03BC 78                 3652 	ld	a,b
   03BD C6 FF              3653 	add	a,#0xFF
   03BF F8 00              3654 	lda	hl,0(sp)
   03C1 77                 3655 	ld	(hl),a
                           3656 ; genAssign (pointer)
                           3657 ; AOP_STK for _collide_game_characters_sloc0_1_0
                           3658 ; AOP_STK for _collide_game_characters_sloc5_1_0
   03C2 F8 08              3659 	lda	hl,8(sp)
   03C4 5E                 3660 	ld	e,(hl)
   03C5 23                 3661 	inc	hl
   03C6 56                 3662 	ld	d,(hl)
   03C7 F8 00              3663 	lda	hl,0(sp)
   03C9 7E                 3664 	ld	a,(hl)
   03CA 12                 3665 	ld	(de),a
                           3666 ;	main.c 105
                           3667 ; genAssign
                           3668 ; AOP_STK for _collide_game_characters_move_x_1_1
   03CB F8 0B              3669 	lda	hl,11(sp)
   03CD 7E                 3670 	ld	a,(hl)
                           3671 ; genPlus
                           3672 ;	genPlusIncr failed
   03CE 81                 3673 	add	a,c
   03CF 47                 3674 	ld	b,a
                           3675 ; genPlus
                           3676 ; genPlusIncr
   03D0 04                 3677 	inc	b
                           3678 ; genAssign (pointer)
                           3679 ; AOP_STK for _collide_game_characters_sloc3_1_0
   03D1 F8 03              3680 	lda	hl,3(sp)
   03D3 5E                 3681 	ld	e,(hl)
   03D4 23                 3682 	inc	hl
   03D5 56                 3683 	ld	d,(hl)
   03D6 78                 3684 	ld	a,b
   03D7 12                 3685 	ld	(de),a
                           3686 ;	main.c 106
                           3687 ; genMinus
                           3688 ; AOP_STK for _collide_game_characters_sloc5_1_0
                           3689 ; AOP_STK for _collide_game_characters_delta_x_1_1
   03D8 78                 3690 	ld	a,b
   03D9 F8 00              3691 	lda	hl,0(sp)
   03DB 96                 3692 	sub	a,(hl)
   03DC F8 0D              3693 	lda	hl,13(sp)
   03DE 77                 3694 	ld	(hl),a
                           3695 ; genGoto
   03DF C3 26 04           3696 	jp	00103$
                           3697 ; genLabel
   03E2                    3698 00102$:
                           3699 ;	main.c 108
                           3700 ; genMinus
                           3701 ; AOP_STK for _collide_game_characters_sloc2_1_0
                           3702 ; AOP_STK for _collide_game_characters_delta_x_1_1
   03E2 F8 05              3703 	lda	hl,5(sp)
   03E4 7E                 3704 	ld	a,(hl)
   03E5 91                 3705 	sub	a,c
   03E6 F8 0D              3706 	lda	hl,13(sp)
   03E8 77                 3707 	ld	(hl),a
                           3708 ;	main.c 109
                           3709 ; genPlus
                           3710 ; AOP_STK for _collide_game_characters_sloc4_1_0
                           3711 ; genPlusIncr
                           3712 ;	genPlusIncr failed
   03E9 F8 01              3713 	lda	hl,1(sp)
   03EB 5E                 3714 	ld	e,(hl)
   03EC 23                 3715 	inc	hl
   03ED 56                 3716 	ld	d,(hl)
   03EE 21 09 00           3717 	ld	hl,#0x0009
   03F1 19                 3718 	add	hl,de
   03F2 5D                 3719 	ld	e,l
   03F3 54                 3720 	ld	d,h
                           3721 ; genPointerGet
                           3722 ; AOP_STK for _collide_game_characters_sloc5_1_0
   03F4 1A                 3723 	ld	a,(de)
   03F5 F8 00              3724 	lda	hl,0(sp)
   03F7 77                 3725 	ld	(hl),a
                           3726 ; genAssign
                           3727 ; AOP_STK for _collide_game_characters_delta_x_1_1
   03F8 F8 0D              3728 	lda	hl,13(sp)
   03FA 46                 3729 	ld	b,(hl)
                           3730 ; genMinus
                           3731 ; AOP_STK for _collide_game_characters_sloc5_1_0
   03FB F8 00              3732 	lda	hl,0(sp)
   03FD 7E                 3733 	ld	a,(hl)
   03FE 90                 3734 	sub	a,b
   03FF 47                 3735 	ld	b,a
                           3736 ; genRightShift
                           3737 ; AOP_STK for _collide_game_characters_move_x_1_1
                           3738 ; shift right 	result 1, left 1
   0400 78                 3739 	ld	a,b
   0401 CB 3F              3740 	srl	a
   0403 F8 0B              3741 	lda	hl,11(sp)
   0405 77                 3742 	ld	(hl),a
                           3743 ;	main.c 110
                           3744 ; genAssign
                           3745 ; AOP_STK for _collide_game_characters_move_x_1_1
   0406 46                 3746 	ld	b,(hl)
                           3747 ; genMinus
                           3748 ; AOP_STK for _collide_game_characters_sloc2_1_0
   0407 F8 05              3749 	lda	hl,5(sp)
   0409 7E                 3750 	ld	a,(hl)
   040A 90                 3751 	sub	a,b
   040B 47                 3752 	ld	b,a
                           3753 ; genMinus
   040C 05                 3754 	dec	b
                           3755 ; genAssign (pointer)
                           3756 ; AOP_STK for _collide_game_characters_sloc0_1_0
   040D F8 08              3757 	lda	hl,8(sp)
   040F 5E                 3758 	ld	e,(hl)
   0410 23                 3759 	inc	hl
   0411 56                 3760 	ld	d,(hl)
   0412 78                 3761 	ld	a,b
   0413 12                 3762 	ld	(de),a
                           3763 ;	main.c 111
                           3764 ; genAssign
                           3765 ; AOP_STK for _collide_game_characters_move_x_1_1
   0414 23                 3766 	inc	hl
   0415 23                 3767 	inc	hl
   0416 7E                 3768 	ld	a,(hl)
                           3769 ; genPlus
                           3770 ;	genPlusIncr failed
   0417 81                 3771 	add	a,c
   0418 4F                 3772 	ld	c,a
                           3773 ; genPlus
                           3774 ; genPlusIncr
   0419 0C                 3775 	inc	c
                           3776 ; genAssign (pointer)
                           3777 ; AOP_STK for _collide_game_characters_sloc3_1_0
   041A F8 03              3778 	lda	hl,3(sp)
   041C 5E                 3779 	ld	e,(hl)
   041D 23                 3780 	inc	hl
   041E 56                 3781 	ld	d,(hl)
   041F 79                 3782 	ld	a,c
   0420 12                 3783 	ld	(de),a
                           3784 ;	main.c 112
                           3785 ; genMinus
                           3786 ; AOP_STK for _collide_game_characters_delta_x_1_1
   0421 78                 3787 	ld	a,b
   0422 91                 3788 	sub	a,c
   0423 F8 0D              3789 	lda	hl,13(sp)
   0425 77                 3790 	ld	(hl),a
                           3791 ; genLabel
   0426                    3792 00103$:
                           3793 ;	main.c 115
                           3794 ; genPlus
                           3795 ; AOP_STK for _collide_game_characters_sloc1_1_0
                           3796 ; AOP_STK for _collide_game_characters_sloc3_1_0
                           3797 ; genPlusIncr
                           3798 ;	genPlusIncr failed
   0426 F8 06              3799 	lda	hl,6(sp)
   0428 5E                 3800 	ld	e,(hl)
   0429 23                 3801 	inc	hl
   042A 56                 3802 	ld	d,(hl)
   042B 21 06 00           3803 	ld	hl,#0x0006
   042E 19                 3804 	add	hl,de
   042F 7D                 3805 	ld	a,l
   0430 54                 3806 	ld	d,h
   0431 F8 03              3807 	lda	hl,3(sp)
   0433 22                 3808 	ld	(hl+),a
   0434 72                 3809 	ld	(hl),d
                           3810 ; genPointerGet
                           3811 ; AOP_STK for _collide_game_characters_sloc3_1_0
                           3812 ; AOP_STK for _collide_game_characters_sloc5_1_0
   0435 2B                 3813 	dec	hl
   0436 5E                 3814 	ld	e,(hl)
   0437 23                 3815 	inc	hl
   0438 56                 3816 	ld	d,(hl)
   0439 1A                 3817 	ld	a,(de)
   043A F8 00              3818 	lda	hl,0(sp)
                           3819 ; genPlus
                           3820 ; AOP_STK for _collide_game_characters_sloc4_1_0
                           3821 ; AOP_STK for _collide_game_characters_sloc0_1_0
                           3822 ; genPlusIncr
                           3823 ;	genPlusIncr failed
   043C 22                 3824 	ld	(hl+),a
   043D 5E                 3825 	ld	e,(hl)
   043E 23                 3826 	inc	hl
   043F 56                 3827 	ld	d,(hl)
   0440 21 06 00           3828 	ld	hl,#0x0006
   0443 19                 3829 	add	hl,de
   0444 7D                 3830 	ld	a,l
   0445 54                 3831 	ld	d,h
   0446 F8 08              3832 	lda	hl,8(sp)
   0448 22                 3833 	ld	(hl+),a
   0449 72                 3834 	ld	(hl),d
                           3835 ; genPointerGet
                           3836 ; AOP_STK for _collide_game_characters_sloc0_1_0
                           3837 ; AOP_STK for _collide_game_characters_sloc2_1_0
   044A 2B                 3838 	dec	hl
   044B 5E                 3839 	ld	e,(hl)
   044C 23                 3840 	inc	hl
   044D 56                 3841 	ld	d,(hl)
   044E 1A                 3842 	ld	a,(de)
   044F F8 05              3843 	lda	hl,5(sp)
   0451 77                 3844 	ld	(hl),a
                           3845 ; genCmpLt
                           3846 ; AOP_STK for _collide_game_characters_sloc5_1_0
                           3847 ; AOP_STK for _collide_game_characters_sloc2_1_0
   0452 AF                 3848 	xor	a,a
   0453 F8 00              3849 	lda	hl,0(sp)
   0455 7E                 3850 	ld	a,(hl)
   0456 F8 05              3851 	lda	hl,5(sp)
   0458 9E                 3852 	sbc	a,(hl) ; 2
   0459 D2 A1 04           3853 	jp	nc,00105$
                           3854 ;	main.c 116
                           3855 ; genMinus
                           3856 ; AOP_STK for _collide_game_characters_sloc2_1_0
                           3857 ; AOP_STK for _collide_game_characters_sloc5_1_0
                           3858 ; AOP_STK for _collide_game_characters_delta_y_1_1
   045C 7E                 3859 	ld	a,(hl)
   045D F8 00              3860 	lda	hl,0(sp)
   045F 96                 3861 	sub	a,(hl)
   0460 F8 0C              3862 	lda	hl,12(sp)
   0462 77                 3863 	ld	(hl),a
                           3864 ;	main.c 117
                           3865 ; genPlus
                           3866 ; AOP_STK for _collide_game_characters_sloc1_1_0
                           3867 ; genPlusIncr
                           3868 ;	genPlusIncr failed
   0463 F8 06              3869 	lda	hl,6(sp)
   0465 5E                 3870 	ld	e,(hl)
   0466 23                 3871 	inc	hl
   0467 56                 3872 	ld	d,(hl)
   0468 21 0A 00           3873 	ld	hl,#0x000A
   046B 19                 3874 	add	hl,de
   046C 5D                 3875 	ld	e,l
   046D 54                 3876 	ld	d,h
                           3877 ; genPointerGet
   046E 1A                 3878 	ld	a,(de)
   046F 4F                 3879 	ld	c,a
                           3880 ; genAssign
                           3881 ; AOP_STK for _collide_game_characters_delta_y_1_1
   0470 F8 0C              3882 	lda	hl,12(sp)
   0472 46                 3883 	ld	b,(hl)
                           3884 ; genMinus
   0473 79                 3885 	ld	a,c
   0474 90                 3886 	sub	a,b
   0475 4F                 3887 	ld	c,a
                           3888 ; genRightShift
                           3889 ; AOP_STK for _collide_game_characters_move_y_1_1
                           3890 ; shift right 	result 1, left 1
   0476 79                 3891 	ld	a,c
   0477 CB 3F              3892 	srl	a
   0479 2B                 3893 	dec	hl
   047A 2B                 3894 	dec	hl
   047B 77                 3895 	ld	(hl),a
                           3896 ;	main.c 118
                           3897 ; genAssign
                           3898 ; AOP_STK for _collide_game_characters_move_y_1_1
   047C 46                 3899 	ld	b,(hl)
                           3900 ; genMinus
                           3901 ; AOP_STK for _collide_game_characters_sloc5_1_0
   047D F8 00              3902 	lda	hl,0(sp)
   047F 7E                 3903 	ld	a,(hl)
   0480 90                 3904 	sub	a,b
   0481 47                 3905 	ld	b,a
                           3906 ; genMinus
   0482 05                 3907 	dec	b
                           3908 ; genAssign (pointer)
                           3909 ; AOP_STK for _collide_game_characters_sloc3_1_0
   0483 F8 03              3910 	lda	hl,3(sp)
   0485 5E                 3911 	ld	e,(hl)
   0486 23                 3912 	inc	hl
   0487 56                 3913 	ld	d,(hl)
   0488 78                 3914 	ld	a,b
   0489 12                 3915 	ld	(de),a
                           3916 ;	main.c 119
                           3917 ; genAssign
                           3918 ; AOP_STK for _collide_game_characters_move_y_1_1
   048A F8 0A              3919 	lda	hl,10(sp)
   048C 7E                 3920 	ld	a,(hl)
                           3921 ; genPlus
                           3922 ; AOP_STK for _collide_game_characters_sloc2_1_0
                           3923 ;	genPlusIncr failed
   048D F8 05              3924 	lda	hl,5(sp)
   048F 86                 3925 	add	a,(hl)
   0490 4F                 3926 	ld	c,a
                           3927 ; genPlus
                           3928 ; genPlusIncr
   0491 0C                 3929 	inc	c
                           3930 ; genAssign (pointer)
                           3931 ; AOP_STK for _collide_game_characters_sloc0_1_0
   0492 F8 08              3932 	lda	hl,8(sp)
   0494 5E                 3933 	ld	e,(hl)
   0495 23                 3934 	inc	hl
   0496 56                 3935 	ld	d,(hl)
   0497 79                 3936 	ld	a,c
   0498 12                 3937 	ld	(de),a
                           3938 ;	main.c 120
                           3939 ; genMinus
                           3940 ; AOP_STK for _collide_game_characters_delta_y_1_1
   0499 79                 3941 	ld	a,c
   049A 90                 3942 	sub	a,b
   049B F8 0C              3943 	lda	hl,12(sp)
   049D 77                 3944 	ld	(hl),a
                           3945 ; genGoto
   049E C3 E5 04           3946 	jp	00106$
                           3947 ; genLabel
   04A1                    3948 00105$:
                           3949 ;	main.c 122
                           3950 ; genMinus
                           3951 ; AOP_STK for _collide_game_characters_sloc5_1_0
                           3952 ; AOP_STK for _collide_game_characters_sloc2_1_0
                           3953 ; AOP_STK for _collide_game_characters_delta_y_1_1
   04A1 F8 00              3954 	lda	hl,0(sp)
   04A3 7E                 3955 	ld	a,(hl)
   04A4 F8 05              3956 	lda	hl,5(sp)
   04A6 96                 3957 	sub	a,(hl)
   04A7 F8 0C              3958 	lda	hl,12(sp)
   04A9 77                 3959 	ld	(hl),a
                           3960 ;	main.c 123
                           3961 ; genPlus
                           3962 ; AOP_STK for _collide_game_characters_sloc4_1_0
                           3963 ; genPlusIncr
                           3964 ;	genPlusIncr failed
   04AA F8 01              3965 	lda	hl,1(sp)
   04AC 5E                 3966 	ld	e,(hl)
   04AD 23                 3967 	inc	hl
   04AE 56                 3968 	ld	d,(hl)
   04AF 21 0A 00           3969 	ld	hl,#0x000A
   04B2 19                 3970 	add	hl,de
   04B3 5D                 3971 	ld	e,l
   04B4 54                 3972 	ld	d,h
                           3973 ; genPointerGet
   04B5 1A                 3974 	ld	a,(de)
   04B6 4F                 3975 	ld	c,a
                           3976 ; genAssign
                           3977 ; AOP_STK for _collide_game_characters_delta_y_1_1
   04B7 F8 0C              3978 	lda	hl,12(sp)
   04B9 46                 3979 	ld	b,(hl)
                           3980 ; genMinus
   04BA 79                 3981 	ld	a,c
   04BB 90                 3982 	sub	a,b
   04BC 4F                 3983 	ld	c,a
                           3984 ; genRightShift
                           3985 ; AOP_STK for _collide_game_characters_move_y_1_1
                           3986 ; shift right 	result 1, left 1
   04BD 79                 3987 	ld	a,c
   04BE CB 3F              3988 	srl	a
   04C0 2B                 3989 	dec	hl
   04C1 2B                 3990 	dec	hl
   04C2 77                 3991 	ld	(hl),a
                           3992 ;	main.c 124
                           3993 ; genAssign
                           3994 ; AOP_STK for _collide_game_characters_move_y_1_1
   04C3 4E                 3995 	ld	c,(hl)
                           3996 ; genMinus
                           3997 ; AOP_STK for _collide_game_characters_sloc5_1_0
   04C4 F8 00              3998 	lda	hl,0(sp)
   04C6 7E                 3999 	ld	a,(hl)
   04C7 91                 4000 	sub	a,c
   04C8 4F                 4001 	ld	c,a
                           4002 ; genMinus
   04C9 0D                 4003 	dec	c
                           4004 ; genAssign (pointer)
                           4005 ; AOP_STK for _collide_game_characters_sloc3_1_0
   04CA F8 03              4006 	lda	hl,3(sp)
   04CC 5E                 4007 	ld	e,(hl)
   04CD 23                 4008 	inc	hl
   04CE 56                 4009 	ld	d,(hl)
   04CF 79                 4010 	ld	a,c
   04D0 12                 4011 	ld	(de),a
                           4012 ;	main.c 125
                           4013 ; genAssign
                           4014 ; AOP_STK for _collide_game_characters_move_y_1_1
   04D1 F8 0A              4015 	lda	hl,10(sp)
   04D3 7E                 4016 	ld	a,(hl)
                           4017 ; genPlus
                           4018 ; AOP_STK for _collide_game_characters_sloc2_1_0
                           4019 ;	genPlusIncr failed
   04D4 F8 05              4020 	lda	hl,5(sp)
   04D6 86                 4021 	add	a,(hl)
   04D7 47                 4022 	ld	b,a
                           4023 ; genPlus
                           4024 ; genPlusIncr
   04D8 04                 4025 	inc	b
                           4026 ; genAssign (pointer)
                           4027 ; AOP_STK for _collide_game_characters_sloc0_1_0
   04D9 F8 08              4028 	lda	hl,8(sp)
   04DB 5E                 4029 	ld	e,(hl)
   04DC 23                 4030 	inc	hl
   04DD 56                 4031 	ld	d,(hl)
   04DE 78                 4032 	ld	a,b
   04DF 12                 4033 	ld	(de),a
                           4034 ;	main.c 126
                           4035 ; genMinus
                           4036 ; AOP_STK for _collide_game_characters_delta_y_1_1
   04E0 79                 4037 	ld	a,c
   04E1 90                 4038 	sub	a,b
   04E2 F8 0C              4039 	lda	hl,12(sp)
   04E4 77                 4040 	ld	(hl),a
                           4041 ; genLabel
   04E5                    4042 00106$:
                           4043 ;	main.c 129
                           4044 ; genCmpLt
                           4045 ; AOP_STK for _collide_game_characters_delta_y_1_1
                           4046 ; AOP_STK for _collide_game_characters_delta_x_1_1
   04E5 F8 0C              4047 	lda	hl,12(sp)
   04E7 7E                 4048 	ld	a,(hl)
   04E8 EE 80              4049 	xor	a,#0x80
   04EA 5F                 4050 	ld	e,a
   04EB 23                 4051 	inc	hl
   04EC 7E                 4052 	ld	a,(hl)
   04ED EE 80              4053 	xor	a,#0x80
   04EF 57                 4054 	ld	d,a
   04F0 7B                 4055 	ld	a,e
   04F1 9A                 4056 	sbc	a,d
   04F2 D2 3E 05           4057 	jp	nc,00108$
                           4058 ;	main.c 130
                           4059 ; genPlus
                           4060 ; AOP_STK for _collide_game_characters_sloc4_1_0
                           4061 ; AOP_STK for _collide_game_characters_sloc3_1_0
                           4062 ; genPlusIncr
                           4063 ;	genPlusIncr failed
   04F5 F8 01              4064 	lda	hl,1(sp)
   04F7 5E                 4065 	ld	e,(hl)
   04F8 23                 4066 	inc	hl
   04F9 56                 4067 	ld	d,(hl)
   04FA 21 07 00           4068 	ld	hl,#0x0007
   04FD 19                 4069 	add	hl,de
   04FE 7D                 4070 	ld	a,l
   04FF 54                 4071 	ld	d,h
   0500 F8 03              4072 	lda	hl,3(sp)
   0502 22                 4073 	ld	(hl+),a
   0503 72                 4074 	ld	(hl),d
                           4075 ; genPointerGet
                           4076 ; AOP_STK for _collide_game_characters_sloc3_1_0
                           4077 ; AOP_STK for _collide_game_characters_sloc5_1_0
   0504 2B                 4078 	dec	hl
   0505 5E                 4079 	ld	e,(hl)
   0506 23                 4080 	inc	hl
   0507 56                 4081 	ld	d,(hl)
   0508 1A                 4082 	ld	a,(de)
   0509 F8 00              4083 	lda	hl,0(sp)
   050B 77                 4084 	ld	(hl),a
                           4085 ; genUminus
                           4086 ; AOP_STK for _collide_game_characters_sloc5_1_0
   050C AF                 4087 	xor	a,a
   050D 3E 00              4088 	ld	a,#0x00
   050F 9E                 4089 	sbc	a,(hl)
   0510 4F                 4090 	ld	c,a
                           4091 ; genAssign (pointer)
                           4092 ; AOP_STK for _collide_game_characters_sloc3_1_0
   0511 F8 03              4093 	lda	hl,3(sp)
   0513 5E                 4094 	ld	e,(hl)
   0514 23                 4095 	inc	hl
   0515 56                 4096 	ld	d,(hl)
   0516 79                 4097 	ld	a,c
   0517 12                 4098 	ld	(de),a
                           4099 ;	main.c 131
                           4100 ; genPlus
                           4101 ; AOP_STK for _collide_game_characters_sloc1_1_0
                           4102 ; AOP_STK for _collide_game_characters_sloc3_1_0
                           4103 ; genPlusIncr
                           4104 ;	genPlusIncr failed
   0518 23                 4105 	inc	hl
   0519 23                 4106 	inc	hl
   051A 5E                 4107 	ld	e,(hl)
   051B 23                 4108 	inc	hl
   051C 56                 4109 	ld	d,(hl)
   051D 21 07 00           4110 	ld	hl,#0x0007
   0520 19                 4111 	add	hl,de
   0521 7D                 4112 	ld	a,l
   0522 54                 4113 	ld	d,h
   0523 F8 03              4114 	lda	hl,3(sp)
   0525 22                 4115 	ld	(hl+),a
   0526 72                 4116 	ld	(hl),d
                           4117 ; genPointerGet
                           4118 ; AOP_STK for _collide_game_characters_sloc3_1_0
                           4119 ; AOP_STK for _collide_game_characters_sloc5_1_0
   0527 2B                 4120 	dec	hl
   0528 5E                 4121 	ld	e,(hl)
   0529 23                 4122 	inc	hl
   052A 56                 4123 	ld	d,(hl)
   052B 1A                 4124 	ld	a,(de)
   052C F8 00              4125 	lda	hl,0(sp)
   052E 77                 4126 	ld	(hl),a
                           4127 ; genUminus
                           4128 ; AOP_STK for _collide_game_characters_sloc5_1_0
   052F AF                 4129 	xor	a,a
   0530 3E 00              4130 	ld	a,#0x00
   0532 9E                 4131 	sbc	a,(hl)
   0533 4F                 4132 	ld	c,a
                           4133 ; genAssign (pointer)
                           4134 ; AOP_STK for _collide_game_characters_sloc3_1_0
   0534 F8 03              4135 	lda	hl,3(sp)
   0536 5E                 4136 	ld	e,(hl)
   0537 23                 4137 	inc	hl
   0538 56                 4138 	ld	d,(hl)
   0539 79                 4139 	ld	a,c
   053A 12                 4140 	ld	(de),a
                           4141 ; genGoto
   053B C3 82 05           4142 	jp	00110$
                           4143 ; genLabel
   053E                    4144 00108$:
                           4145 ;	main.c 133
                           4146 ; genPlus
                           4147 ; AOP_STK for _collide_game_characters_sloc4_1_0
                           4148 ; genPlusIncr
                           4149 ;	genPlusIncr failed
   053E F8 01              4150 	lda	hl,1(sp)
   0540 5E                 4151 	ld	e,(hl)
   0541 23                 4152 	inc	hl
   0542 56                 4153 	ld	d,(hl)
   0543 21 08 00           4154 	ld	hl,#0x0008
   0546 19                 4155 	add	hl,de
   0547 7D                 4156 	ld	a,l
   0548 54                 4157 	ld	d,h
   0549 F8 01              4158 	lda	hl,1(sp)
   054B 22                 4159 	ld	(hl+),a
   054C 72                 4160 	ld	(hl),d
                           4161 ; genPointerGet
                           4162 ; AOP_STK for _collide_game_characters_sloc4_1_0
                           4163 ; AOP_STK for _collide_game_characters_sloc5_1_0
   054D 2B                 4164 	dec	hl
   054E 5E                 4165 	ld	e,(hl)
   054F 23                 4166 	inc	hl
   0550 56                 4167 	ld	d,(hl)
   0551 1A                 4168 	ld	a,(de)
   0552 2B                 4169 	dec	hl
   0553 2B                 4170 	dec	hl
   0554 77                 4171 	ld	(hl),a
                           4172 ; genUminus
                           4173 ; AOP_STK for _collide_game_characters_sloc5_1_0
   0555 AF                 4174 	xor	a,a
   0556 3E 00              4175 	ld	a,#0x00
   0558 9E                 4176 	sbc	a,(hl)
   0559 4F                 4177 	ld	c,a
                           4178 ; genAssign (pointer)
                           4179 ; AOP_STK for _collide_game_characters_sloc4_1_0
   055A 23                 4180 	inc	hl
   055B 5E                 4181 	ld	e,(hl)
   055C 23                 4182 	inc	hl
   055D 56                 4183 	ld	d,(hl)
   055E 79                 4184 	ld	a,c
   055F 12                 4185 	ld	(de),a
                           4186 ;	main.c 134
                           4187 ; genPlus
                           4188 ; AOP_STK for _collide_game_characters_sloc1_1_0
                           4189 ; AOP_STK for _collide_game_characters_sloc4_1_0
                           4190 ; genPlusIncr
                           4191 ;	genPlusIncr failed
   0560 F8 06              4192 	lda	hl,6(sp)
   0562 5E                 4193 	ld	e,(hl)
   0563 23                 4194 	inc	hl
   0564 56                 4195 	ld	d,(hl)
   0565 21 08 00           4196 	ld	hl,#0x0008
   0568 19                 4197 	add	hl,de
   0569 7D                 4198 	ld	a,l
   056A 54                 4199 	ld	d,h
   056B F8 01              4200 	lda	hl,1(sp)
   056D 22                 4201 	ld	(hl+),a
   056E 72                 4202 	ld	(hl),d
                           4203 ; genPointerGet
                           4204 ; AOP_STK for _collide_game_characters_sloc4_1_0
                           4205 ; AOP_STK for _collide_game_characters_sloc5_1_0
   056F 2B                 4206 	dec	hl
   0570 5E                 4207 	ld	e,(hl)
   0571 23                 4208 	inc	hl
   0572 56                 4209 	ld	d,(hl)
   0573 1A                 4210 	ld	a,(de)
   0574 2B                 4211 	dec	hl
   0575 2B                 4212 	dec	hl
   0576 77                 4213 	ld	(hl),a
                           4214 ; genUminus
                           4215 ; AOP_STK for _collide_game_characters_sloc5_1_0
   0577 AF                 4216 	xor	a,a
   0578 3E 00              4217 	ld	a,#0x00
   057A 9E                 4218 	sbc	a,(hl)
   057B 4F                 4219 	ld	c,a
                           4220 ; genAssign (pointer)
                           4221 ; AOP_STK for _collide_game_characters_sloc4_1_0
   057C 23                 4222 	inc	hl
   057D 5E                 4223 	ld	e,(hl)
   057E 23                 4224 	inc	hl
   057F 56                 4225 	ld	d,(hl)
   0580 79                 4226 	ld	a,c
   0581 12                 4227 	ld	(de),a
                           4228 ; genLabel
   0582                    4229 00110$:
                           4230 ; genEndFunction
   0582 E8 0E              4231 	lda	sp,14(sp)
   0584 C1                 4232 	pop	bc
   0585 C9                 4233 	ret
   0586                    4234 ___collide_game_characters_end:
                           4235 ;	main.c 139
                           4236 ; genLabel
                           4237 ; genFunction
                           4238 ;	---------------------------------
                           4239 ; Function set_up_player
                           4240 ; ---------------------------------
   0586                    4241 ___set_up_player_start:
   0586                    4242 _set_up_player:
   0586 C5                 4243 	push	bc
   0587 E8 FC              4244 	lda	sp,-4(sp)
                           4245 ;	main.c 140
                           4246 ; genPlus
                           4247 ; genPlusIncr
   0589 11 84 01           4248 	ld	de,#_player + 0 + 4
                           4249 ; genAssign (pointer)
   058C 3E 04              4250 	ld	a,#0x04
   058E 12                 4251 	ld	(de),a
                           4252 ;	main.c 141
                           4253 ; genPlus
                           4254 ; AOP_STK for _set_up_player_sloc0_1_0
                           4255 ; genPlusIncr
                           4256 ;	genPlusIncr failed
   058F 11 80 01           4257 	ld	de,#_player + 0
   0592 21 05 00           4258 	ld	hl,#0x0005
   0595 19                 4259 	add	hl,de
   0596 7D                 4260 	ld	a,l
   0597 54                 4261 	ld	d,h
   0598 F8 02              4262 	lda	hl,2(sp)
   059A 22                 4263 	ld	(hl+),a
   059B 72                 4264 	ld	(hl),d
                           4265 ; genAssign (pointer)
                           4266 ; AOP_STK for _set_up_player_sloc0_1_0
   059C 2B                 4267 	dec	hl
   059D 5E                 4268 	ld	e,(hl)
   059E 23                 4269 	inc	hl
   059F 56                 4270 	ld	d,(hl)
   05A0 3E 50              4271 	ld	a,#0x50
   05A2 12                 4272 	ld	(de),a
                           4273 ;	main.c 142
                           4274 ; genPlus
                           4275 ; AOP_STK for _set_up_player_sloc1_1_0
                           4276 ; genPlusIncr
                           4277 ;	genPlusIncr failed
   05A3 11 80 01           4278 	ld	de,#_player + 0
   05A6 21 06 00           4279 	ld	hl,#0x0006
   05A9 19                 4280 	add	hl,de
   05AA 7D                 4281 	ld	a,l
   05AB 54                 4282 	ld	d,h
   05AC F8 00              4283 	lda	hl,0(sp)
   05AE 22                 4284 	ld	(hl+),a
   05AF 72                 4285 	ld	(hl),d
                           4286 ; genAssign (pointer)
                           4287 ; AOP_STK for _set_up_player_sloc1_1_0
   05B0 2B                 4288 	dec	hl
   05B1 5E                 4289 	ld	e,(hl)
   05B2 23                 4290 	inc	hl
   05B3 56                 4291 	ld	d,(hl)
   05B4 3E 82              4292 	ld	a,#0x82
   05B6 12                 4293 	ld	(de),a
                           4294 ;	main.c 143
                           4295 ; genPlus
                           4296 ; genPlusIncr
   05B7 11 87 01           4297 	ld	de,#_player + 0 + 7
                           4298 ; genAssign (pointer)
   05BA 3E 00              4299 	ld	a,#0x00
   05BC 12                 4300 	ld	(de),a
                           4301 ;	main.c 144
                           4302 ; genPlus
                           4303 ; genPlusIncr
   05BD 11 88 01           4304 	ld	de,#_player + 0 + 8
                           4305 ; genAssign (pointer)
   05C0 3E 00              4306 	ld	a,#0x00
   05C2 12                 4307 	ld	(de),a
                           4308 ;	main.c 145
                           4309 ; genPlus
                           4310 ; genPlusIncr
   05C3 11 89 01           4311 	ld	de,#_player + 0 + 9
                           4312 ; genAssign (pointer)
   05C6 3E 10              4313 	ld	a,#0x10
   05C8 12                 4314 	ld	(de),a
                           4315 ;	main.c 146
                           4316 ; genPlus
                           4317 ; genPlusIncr
   05C9 11 8A 01           4318 	ld	de,#_player + 0 + 10
                           4319 ; genAssign (pointer)
   05CC 3E 10              4320 	ld	a,#0x10
   05CE 12                 4321 	ld	(de),a
                           4322 ;	main.c 148
                           4323 ; genIpush
   05CF 3E 00              4324 	ld	a,#0x00
   05D1 F5                 4325 	push	af
   05D2 33                 4326 	inc	sp
                           4327 ; genIpush
                           4328 ; AOP_HL for _next_sprite_index
   05D3 21 B8 01           4329 	ld	hl,#_next_sprite_index + 0
   05D6 7E                 4330 	ld	a,(hl)
   05D7 F5                 4331 	push	af
   05D8 33                 4332 	inc	sp
                           4333 ; genCall
   05D9 CD 00 00           4334 	call	_set_sprite_tile
   05DC E8 02              4335 	lda	sp,2(sp)
                           4336 ;	main.c 149
                           4337 ; genAssign
                           4338 ; AOP_HL for _next_sprite_index
   05DE 21 B8 01           4339 	ld	hl,#_next_sprite_index + 0
   05E1 4E                 4340 	ld	c,(hl)
                           4341 ; genPlus
                           4342 ; AOP_HL for _next_sprite_index
                           4343 ; genPlusIncr
   05E2 34                 4344 	inc	(hl)
                           4345 ; genAssign (pointer)
   05E3 11 80 01           4346 	ld	de,#_player + 0
   05E6 79                 4347 	ld	a,c
   05E7 12                 4348 	ld	(de),a
                           4349 ;	main.c 150
                           4350 ; genIpush
   05E8 3E 01              4351 	ld	a,#0x01
   05EA F5                 4352 	push	af
   05EB 33                 4353 	inc	sp
                           4354 ; genIpush
                           4355 ; AOP_HL for _next_sprite_index
   05EC 7E                 4356 	ld	a,(hl)
   05ED F5                 4357 	push	af
   05EE 33                 4358 	inc	sp
                           4359 ; genCall
   05EF CD 00 00           4360 	call	_set_sprite_tile
   05F2 E8 02              4361 	lda	sp,2(sp)
                           4362 ;	main.c 151
                           4363 ; genPlus
                           4364 ; genPlusIncr
   05F4 11 81 01           4365 	ld	de,#_player + 0 + 1
                           4366 ; genAssign
                           4367 ; AOP_HL for _next_sprite_index
   05F7 21 B8 01           4368 	ld	hl,#_next_sprite_index + 0
   05FA 4E                 4369 	ld	c,(hl)
                           4370 ; genPlus
                           4371 ; AOP_HL for _next_sprite_index
                           4372 ; genPlusIncr
   05FB 34                 4373 	inc	(hl)
                           4374 ; genAssign (pointer)
   05FC 79                 4375 	ld	a,c
   05FD 12                 4376 	ld	(de),a
                           4377 ;	main.c 152
                           4378 ; genIpush
   05FE 3E 02              4379 	ld	a,#0x02
   0600 F5                 4380 	push	af
   0601 33                 4381 	inc	sp
                           4382 ; genIpush
                           4383 ; AOP_HL for _next_sprite_index
   0602 7E                 4384 	ld	a,(hl)
   0603 F5                 4385 	push	af
   0604 33                 4386 	inc	sp
                           4387 ; genCall
   0605 CD 00 00           4388 	call	_set_sprite_tile
   0608 E8 02              4389 	lda	sp,2(sp)
                           4390 ;	main.c 153
                           4391 ; genPlus
                           4392 ; genPlusIncr
   060A 11 82 01           4393 	ld	de,#_player + 0 + 2
                           4394 ; genAssign
                           4395 ; AOP_HL for _next_sprite_index
   060D 21 B8 01           4396 	ld	hl,#_next_sprite_index + 0
   0610 4E                 4397 	ld	c,(hl)
                           4398 ; genPlus
                           4399 ; AOP_HL for _next_sprite_index
                           4400 ; genPlusIncr
   0611 34                 4401 	inc	(hl)
                           4402 ; genAssign (pointer)
   0612 79                 4403 	ld	a,c
   0613 12                 4404 	ld	(de),a
                           4405 ;	main.c 154
                           4406 ; genIpush
   0614 3E 03              4407 	ld	a,#0x03
   0616 F5                 4408 	push	af
   0617 33                 4409 	inc	sp
                           4410 ; genIpush
                           4411 ; AOP_HL for _next_sprite_index
   0618 7E                 4412 	ld	a,(hl)
   0619 F5                 4413 	push	af
   061A 33                 4414 	inc	sp
                           4415 ; genCall
   061B CD 00 00           4416 	call	_set_sprite_tile
   061E E8 02              4417 	lda	sp,2(sp)
                           4418 ;	main.c 155
                           4419 ; genPlus
                           4420 ; genPlusIncr
   0620 11 83 01           4421 	ld	de,#_player + 0 + 3
                           4422 ; genAssign
                           4423 ; AOP_HL for _next_sprite_index
   0623 21 B8 01           4424 	ld	hl,#_next_sprite_index + 0
   0626 4E                 4425 	ld	c,(hl)
                           4426 ; genPlus
                           4427 ; AOP_HL for _next_sprite_index
                           4428 ; genPlusIncr
   0627 34                 4429 	inc	(hl)
                           4430 ; genAssign (pointer)
   0628 79                 4431 	ld	a,c
   0629 12                 4432 	ld	(de),a
                           4433 ;	main.c 157
                           4434 ; genPointerGet
                           4435 ; AOP_STK for _set_up_player_sloc1_1_0
   062A F8 00              4436 	lda	hl,0(sp)
   062C 5E                 4437 	ld	e,(hl)
   062D 23                 4438 	inc	hl
   062E 56                 4439 	ld	d,(hl)
   062F 1A                 4440 	ld	a,(de)
   0630 4F                 4441 	ld	c,a
                           4442 ; genPointerGet
                           4443 ; AOP_STK for _set_up_player_sloc0_1_0
   0631 23                 4444 	inc	hl
   0632 5E                 4445 	ld	e,(hl)
   0633 23                 4446 	inc	hl
   0634 56                 4447 	ld	d,(hl)
   0635 1A                 4448 	ld	a,(de)
   0636 47                 4449 	ld	b,a
                           4450 ; genIpush
   0637 79                 4451 	ld	a,c
   0638 F5                 4452 	push	af
   0639 33                 4453 	inc	sp
                           4454 ; genIpush
   063A 78                 4455 	ld	a,b
   063B F5                 4456 	push	af
   063C 33                 4457 	inc	sp
                           4458 ; genIpush
   063D 21 80 01           4459 	ld	hl,#_player + 0
   0640 E5                 4460 	push	hl
                           4461 ; genCall
   0641 CD 7D 00           4462 	call	_move_game_character
   0644 E8 04              4463 	lda	sp,4(sp)
                           4464 ; genLabel
   0646                    4465 00101$:
                           4466 ; genEndFunction
   0646 E8 04              4467 	lda	sp,4(sp)
   0648 C1                 4468 	pop	bc
   0649 C9                 4469 	ret
   064A                    4470 ___set_up_player_end:
                           4471 ;	main.c 160
                           4472 ; genLabel
                           4473 ; genFunction
                           4474 ;	---------------------------------
                           4475 ; Function set_up_bullet
                           4476 ; ---------------------------------
   064A                    4477 ___set_up_bullet_start:
   064A                    4478 _set_up_bullet:
   064A C5                 4479 	push	bc
   064B E8 FC              4480 	lda	sp,-4(sp)
                           4481 ;	main.c 161
                           4482 ; genPlus
                           4483 ; AOP_STK for _set_up_bullet_sloc0_1_0
                           4484 ; genPlusIncr
                           4485 ;	genPlusIncr failed
   064D 11 8B 01           4486 	ld	de,#_bullet + 0
   0650 21 05 00           4487 	ld	hl,#0x0005
   0653 19                 4488 	add	hl,de
   0654 7D                 4489 	ld	a,l
   0655 54                 4490 	ld	d,h
   0656 F8 02              4491 	lda	hl,2(sp)
   0658 22                 4492 	ld	(hl+),a
   0659 72                 4493 	ld	(hl),d
                           4494 ; genAssign (pointer)
                           4495 ; AOP_STK for _set_up_bullet_sloc0_1_0
   065A 2B                 4496 	dec	hl
   065B 5E                 4497 	ld	e,(hl)
   065C 23                 4498 	inc	hl
   065D 56                 4499 	ld	d,(hl)
   065E 3E 50              4500 	ld	a,#0x50
   0660 12                 4501 	ld	(de),a
                           4502 ;	main.c 162
                           4503 ; genPlus
                           4504 ; AOP_STK for _set_up_bullet_sloc1_1_0
                           4505 ; genPlusIncr
                           4506 ;	genPlusIncr failed
   0661 11 8B 01           4507 	ld	de,#_bullet + 0
   0664 21 06 00           4508 	ld	hl,#0x0006
   0667 19                 4509 	add	hl,de
   0668 7D                 4510 	ld	a,l
   0669 54                 4511 	ld	d,h
   066A F8 00              4512 	lda	hl,0(sp)
   066C 22                 4513 	ld	(hl+),a
   066D 72                 4514 	ld	(hl),d
                           4515 ; genAssign (pointer)
                           4516 ; AOP_STK for _set_up_bullet_sloc1_1_0
   066E 2B                 4517 	dec	hl
   066F 5E                 4518 	ld	e,(hl)
   0670 23                 4519 	inc	hl
   0671 56                 4520 	ld	d,(hl)
   0672 3E 82              4521 	ld	a,#0x82
   0674 12                 4522 	ld	(de),a
                           4523 ;	main.c 163
                           4524 ; genPlus
                           4525 ; genPlusIncr
   0675 11 92 01           4526 	ld	de,#_bullet + 0 + 7
                           4527 ; genAssign (pointer)
   0678 3E 00              4528 	ld	a,#0x00
   067A 12                 4529 	ld	(de),a
                           4530 ;	main.c 164
                           4531 ; genPlus
                           4532 ; genPlusIncr
   067B 11 93 01           4533 	ld	de,#_bullet + 0 + 8
                           4534 ; genAssign (pointer)
   067E 3E 00              4535 	ld	a,#0x00
   0680 12                 4536 	ld	(de),a
                           4537 ;	main.c 165
                           4538 ; genPlus
                           4539 ; genPlusIncr
   0681 11 94 01           4540 	ld	de,#_bullet + 0 + 9
                           4541 ; genAssign (pointer)
   0684 3E 10              4542 	ld	a,#0x10
   0686 12                 4543 	ld	(de),a
                           4544 ;	main.c 166
                           4545 ; genPlus
                           4546 ; genPlusIncr
   0687 11 95 01           4547 	ld	de,#_bullet + 0 + 10
                           4548 ; genAssign (pointer)
   068A 3E 10              4549 	ld	a,#0x10
   068C 12                 4550 	ld	(de),a
                           4551 ;	main.c 168
                           4552 ; genIpush
   068D 3E 14              4553 	ld	a,#0x14
   068F F5                 4554 	push	af
   0690 33                 4555 	inc	sp
                           4556 ; genIpush
                           4557 ; AOP_HL for _next_sprite_index
   0691 21 B8 01           4558 	ld	hl,#_next_sprite_index + 0
   0694 7E                 4559 	ld	a,(hl)
   0695 F5                 4560 	push	af
   0696 33                 4561 	inc	sp
                           4562 ; genCall
   0697 CD 00 00           4563 	call	_set_sprite_tile
   069A E8 02              4564 	lda	sp,2(sp)
                           4565 ;	main.c 169
                           4566 ; genAssign
                           4567 ; AOP_HL for _next_sprite_index
   069C 21 B8 01           4568 	ld	hl,#_next_sprite_index + 0
   069F 4E                 4569 	ld	c,(hl)
                           4570 ; genPlus
                           4571 ; AOP_HL for _next_sprite_index
                           4572 ; genPlusIncr
   06A0 34                 4573 	inc	(hl)
                           4574 ; genAssign (pointer)
   06A1 11 8B 01           4575 	ld	de,#_bullet + 0
   06A4 79                 4576 	ld	a,c
   06A5 12                 4577 	ld	(de),a
                           4578 ;	main.c 170
                           4579 ; genIpush
   06A6 3E 15              4580 	ld	a,#0x15
   06A8 F5                 4581 	push	af
   06A9 33                 4582 	inc	sp
                           4583 ; genIpush
                           4584 ; AOP_HL for _next_sprite_index
   06AA 7E                 4585 	ld	a,(hl)
   06AB F5                 4586 	push	af
   06AC 33                 4587 	inc	sp
                           4588 ; genCall
   06AD CD 00 00           4589 	call	_set_sprite_tile
   06B0 E8 02              4590 	lda	sp,2(sp)
                           4591 ;	main.c 171
                           4592 ; genPlus
                           4593 ; genPlusIncr
   06B2 11 8C 01           4594 	ld	de,#_bullet + 0 + 1
                           4595 ; genAssign
                           4596 ; AOP_HL for _next_sprite_index
   06B5 21 B8 01           4597 	ld	hl,#_next_sprite_index + 0
   06B8 4E                 4598 	ld	c,(hl)
                           4599 ; genPlus
                           4600 ; AOP_HL for _next_sprite_index
                           4601 ; genPlusIncr
   06B9 34                 4602 	inc	(hl)
                           4603 ; genAssign (pointer)
   06BA 79                 4604 	ld	a,c
   06BB 12                 4605 	ld	(de),a
                           4606 ;	main.c 172
                           4607 ; genIpush
   06BC 3E 16              4608 	ld	a,#0x16
   06BE F5                 4609 	push	af
   06BF 33                 4610 	inc	sp
                           4611 ; genIpush
                           4612 ; AOP_HL for _next_sprite_index
   06C0 7E                 4613 	ld	a,(hl)
   06C1 F5                 4614 	push	af
   06C2 33                 4615 	inc	sp
                           4616 ; genCall
   06C3 CD 00 00           4617 	call	_set_sprite_tile
   06C6 E8 02              4618 	lda	sp,2(sp)
                           4619 ;	main.c 173
                           4620 ; genPlus
                           4621 ; genPlusIncr
   06C8 11 8D 01           4622 	ld	de,#_bullet + 0 + 2
                           4623 ; genAssign
                           4624 ; AOP_HL for _next_sprite_index
   06CB 21 B8 01           4625 	ld	hl,#_next_sprite_index + 0
   06CE 4E                 4626 	ld	c,(hl)
                           4627 ; genPlus
                           4628 ; AOP_HL for _next_sprite_index
                           4629 ; genPlusIncr
   06CF 34                 4630 	inc	(hl)
                           4631 ; genAssign (pointer)
   06D0 79                 4632 	ld	a,c
   06D1 12                 4633 	ld	(de),a
                           4634 ;	main.c 174
                           4635 ; genIpush
   06D2 3E 17              4636 	ld	a,#0x17
   06D4 F5                 4637 	push	af
   06D5 33                 4638 	inc	sp
                           4639 ; genIpush
                           4640 ; AOP_HL for _next_sprite_index
   06D6 7E                 4641 	ld	a,(hl)
   06D7 F5                 4642 	push	af
   06D8 33                 4643 	inc	sp
                           4644 ; genCall
   06D9 CD 00 00           4645 	call	_set_sprite_tile
   06DC E8 02              4646 	lda	sp,2(sp)
                           4647 ;	main.c 175
                           4648 ; genPlus
                           4649 ; genPlusIncr
   06DE 11 8E 01           4650 	ld	de,#_bullet + 0 + 3
                           4651 ; genAssign
                           4652 ; AOP_HL for _next_sprite_index
   06E1 21 B8 01           4653 	ld	hl,#_next_sprite_index + 0
   06E4 4E                 4654 	ld	c,(hl)
                           4655 ; genPlus
                           4656 ; AOP_HL for _next_sprite_index
                           4657 ; genPlusIncr
   06E5 34                 4658 	inc	(hl)
                           4659 ; genAssign (pointer)
   06E6 79                 4660 	ld	a,c
   06E7 12                 4661 	ld	(de),a
                           4662 ;	main.c 177
                           4663 ; genPointerGet
                           4664 ; AOP_STK for _set_up_bullet_sloc1_1_0
   06E8 F8 00              4665 	lda	hl,0(sp)
   06EA 5E                 4666 	ld	e,(hl)
   06EB 23                 4667 	inc	hl
   06EC 56                 4668 	ld	d,(hl)
   06ED 1A                 4669 	ld	a,(de)
   06EE 4F                 4670 	ld	c,a
                           4671 ; genPointerGet
                           4672 ; AOP_STK for _set_up_bullet_sloc0_1_0
   06EF 23                 4673 	inc	hl
   06F0 5E                 4674 	ld	e,(hl)
   06F1 23                 4675 	inc	hl
   06F2 56                 4676 	ld	d,(hl)
   06F3 1A                 4677 	ld	a,(de)
   06F4 47                 4678 	ld	b,a
                           4679 ; genIpush
   06F5 79                 4680 	ld	a,c
   06F6 F5                 4681 	push	af
   06F7 33                 4682 	inc	sp
                           4683 ; genIpush
   06F8 78                 4684 	ld	a,b
   06F9 F5                 4685 	push	af
   06FA 33                 4686 	inc	sp
                           4687 ; genIpush
   06FB 21 8B 01           4688 	ld	hl,#_bullet + 0
   06FE E5                 4689 	push	hl
                           4690 ; genCall
   06FF CD 7D 00           4691 	call	_move_game_character
   0702 E8 04              4692 	lda	sp,4(sp)
                           4693 ; genLabel
   0704                    4694 00101$:
                           4695 ; genEndFunction
   0704 E8 04              4696 	lda	sp,4(sp)
   0706 C1                 4697 	pop	bc
   0707 C9                 4698 	ret
   0708                    4699 ___set_up_bullet_end:
                           4700 ;	main.c 180
                           4701 ; genLabel
                           4702 ; genFunction
                           4703 ;	---------------------------------
                           4704 ; Function set_up_enemy
                           4705 ; ---------------------------------
   0708                    4706 ___set_up_enemy_start:
   0708                    4707 _set_up_enemy:
   0708 C5                 4708 	push	bc
   0709 E8 FE              4709 	lda	sp,-2(sp)
                           4710 ;	main.c 181
                           4711 ; genAssign
                           4712 ; AOP_STK for 
                           4713 ; AOP_STK for _set_up_enemy_sloc0_1_0
   070B F8 06              4714 	lda	hl,6(sp)
   070D 2A                 4715 	ld	a,(hl+)
   070E 5E                 4716 	ld	e,(hl)
   070F F8 00              4717 	lda	hl,0(sp)
   0711 22                 4718 	ld	(hl+),a
   0712 73                 4719 	ld	(hl),e
                           4720 ; genPlus
                           4721 ; AOP_STK for _set_up_enemy_sloc0_1_0
                           4722 ; genPlusIncr
                           4723 ;	genPlusIncr failed
   0713 2B                 4724 	dec	hl
   0714 5E                 4725 	ld	e,(hl)
   0715 23                 4726 	inc	hl
   0716 56                 4727 	ld	d,(hl)
   0717 21 05 00           4728 	ld	hl,#0x0005
   071A 19                 4729 	add	hl,de
   071B 5D                 4730 	ld	e,l
   071C 54                 4731 	ld	d,h
                           4732 ; genAssign (pointer)
                           4733 ; AOP_STK for 
   071D F8 08              4734 	lda	hl,8(sp)
   071F 7E                 4735 	ld	a,(hl)
   0720 12                 4736 	ld	(de),a
                           4737 ;	main.c 182
                           4738 ; genPlus
                           4739 ; AOP_STK for _set_up_enemy_sloc0_1_0
                           4740 ; genPlusIncr
                           4741 ;	genPlusIncr failed
   0721 F8 00              4742 	lda	hl,0(sp)
   0723 5E                 4743 	ld	e,(hl)
   0724 23                 4744 	inc	hl
   0725 56                 4745 	ld	d,(hl)
   0726 21 06 00           4746 	ld	hl,#0x0006
   0729 19                 4747 	add	hl,de
   072A 5D                 4748 	ld	e,l
   072B 54                 4749 	ld	d,h
                           4750 ; genAssign (pointer)
                           4751 ; AOP_STK for 
   072C F8 09              4752 	lda	hl,9(sp)
   072E 7E                 4753 	ld	a,(hl)
   072F 12                 4754 	ld	(de),a
                           4755 ;	main.c 183
                           4756 ; genPlus
                           4757 ; AOP_STK for _set_up_enemy_sloc0_1_0
                           4758 ; genPlusIncr
                           4759 ;	genPlusIncr failed
   0730 F8 00              4760 	lda	hl,0(sp)
   0732 5E                 4761 	ld	e,(hl)
   0733 23                 4762 	inc	hl
   0734 56                 4763 	ld	d,(hl)
   0735 21 07 00           4764 	ld	hl,#0x0007
   0738 19                 4765 	add	hl,de
   0739 5D                 4766 	ld	e,l
   073A 54                 4767 	ld	d,h
                           4768 ; genAssign (pointer)
                           4769 ; AOP_STK for 
   073B F8 0A              4770 	lda	hl,10(sp)
   073D 7E                 4771 	ld	a,(hl)
   073E 12                 4772 	ld	(de),a
                           4773 ;	main.c 184
                           4774 ; genPlus
                           4775 ; AOP_STK for _set_up_enemy_sloc0_1_0
                           4776 ; genPlusIncr
                           4777 ;	genPlusIncr failed
   073F F8 00              4778 	lda	hl,0(sp)
   0741 5E                 4779 	ld	e,(hl)
   0742 23                 4780 	inc	hl
   0743 56                 4781 	ld	d,(hl)
   0744 21 08 00           4782 	ld	hl,#0x0008
   0747 19                 4783 	add	hl,de
   0748 5D                 4784 	ld	e,l
   0749 54                 4785 	ld	d,h
                           4786 ; genAssign (pointer)
                           4787 ; AOP_STK for 
   074A F8 0B              4788 	lda	hl,11(sp)
   074C 7E                 4789 	ld	a,(hl)
   074D 12                 4790 	ld	(de),a
                           4791 ;	main.c 185
                           4792 ; genPlus
                           4793 ; AOP_STK for _set_up_enemy_sloc0_1_0
                           4794 ; genPlusIncr
                           4795 ;	genPlusIncr failed
   074E F8 00              4796 	lda	hl,0(sp)
   0750 5E                 4797 	ld	e,(hl)
   0751 23                 4798 	inc	hl
   0752 56                 4799 	ld	d,(hl)
   0753 21 09 00           4800 	ld	hl,#0x0009
   0756 19                 4801 	add	hl,de
   0757 5D                 4802 	ld	e,l
   0758 54                 4803 	ld	d,h
                           4804 ; genAssign (pointer)
   0759 3E 10              4805 	ld	a,#0x10
   075B 12                 4806 	ld	(de),a
                           4807 ;	main.c 186
                           4808 ; genPlus
                           4809 ; AOP_STK for _set_up_enemy_sloc0_1_0
                           4810 ; genPlusIncr
                           4811 ;	genPlusIncr failed
   075C F8 00              4812 	lda	hl,0(sp)
   075E 5E                 4813 	ld	e,(hl)
   075F 23                 4814 	inc	hl
   0760 56                 4815 	ld	d,(hl)
   0761 21 0A 00           4816 	ld	hl,#0x000A
   0764 19                 4817 	add	hl,de
   0765 5D                 4818 	ld	e,l
   0766 54                 4819 	ld	d,h
                           4820 ; genAssign (pointer)
   0767 3E 10              4821 	ld	a,#0x10
   0769 12                 4822 	ld	(de),a
                           4823 ;	main.c 188
                           4824 ; genIpush
   076A 3E 10              4825 	ld	a,#0x10
   076C F5                 4826 	push	af
   076D 33                 4827 	inc	sp
                           4828 ; genIpush
                           4829 ; AOP_HL for _next_sprite_index
   076E 21 B8 01           4830 	ld	hl,#_next_sprite_index + 0
   0771 7E                 4831 	ld	a,(hl)
   0772 F5                 4832 	push	af
   0773 33                 4833 	inc	sp
                           4834 ; genCall
   0774 CD 00 00           4835 	call	_set_sprite_tile
   0777 E8 02              4836 	lda	sp,2(sp)
                           4837 ;	main.c 189
                           4838 ; genAssign
                           4839 ; AOP_HL for _next_sprite_index
   0779 21 B8 01           4840 	ld	hl,#_next_sprite_index + 0
   077C 4E                 4841 	ld	c,(hl)
                           4842 ; genPlus
                           4843 ; AOP_HL for _next_sprite_index
                           4844 ; genPlusIncr
   077D 34                 4845 	inc	(hl)
                           4846 ; genAssign (pointer)
                           4847 ; AOP_STK for _set_up_enemy_sloc0_1_0
   077E F8 00              4848 	lda	hl,0(sp)
   0780 5E                 4849 	ld	e,(hl)
   0781 23                 4850 	inc	hl
   0782 56                 4851 	ld	d,(hl)
   0783 79                 4852 	ld	a,c
   0784 12                 4853 	ld	(de),a
                           4854 ;	main.c 190
                           4855 ; genIpush
   0785 3E 11              4856 	ld	a,#0x11
   0787 F5                 4857 	push	af
   0788 33                 4858 	inc	sp
                           4859 ; genIpush
                           4860 ; AOP_HL for _next_sprite_index
   0789 21 B8 01           4861 	ld	hl,#_next_sprite_index + 0
   078C 7E                 4862 	ld	a,(hl)
   078D F5                 4863 	push	af
   078E 33                 4864 	inc	sp
                           4865 ; genCall
   078F CD 00 00           4866 	call	_set_sprite_tile
   0792 E8 02              4867 	lda	sp,2(sp)
                           4868 ;	main.c 191
                           4869 ; genPlus
                           4870 ; AOP_STK for _set_up_enemy_sloc0_1_0
                           4871 ; genPlusIncr
   0794 F8 00              4872 	lda	hl,0(sp)
   0796 5E                 4873 	ld	e,(hl)
   0797 23                 4874 	inc	hl
   0798 56                 4875 	ld	d,(hl)
   0799 13                 4876 	inc	de
                           4877 ; genAssign
                           4878 ; AOP_HL for _next_sprite_index
   079A 21 B8 01           4879 	ld	hl,#_next_sprite_index + 0
   079D 4E                 4880 	ld	c,(hl)
                           4881 ; genPlus
                           4882 ; AOP_HL for _next_sprite_index
                           4883 ; genPlusIncr
   079E 34                 4884 	inc	(hl)
                           4885 ; genAssign (pointer)
   079F 79                 4886 	ld	a,c
   07A0 12                 4887 	ld	(de),a
                           4888 ;	main.c 192
                           4889 ; genIpush
   07A1 3E 12              4890 	ld	a,#0x12
   07A3 F5                 4891 	push	af
   07A4 33                 4892 	inc	sp
                           4893 ; genIpush
                           4894 ; AOP_HL for _next_sprite_index
   07A5 7E                 4895 	ld	a,(hl)
   07A6 F5                 4896 	push	af
   07A7 33                 4897 	inc	sp
                           4898 ; genCall
   07A8 CD 00 00           4899 	call	_set_sprite_tile
   07AB E8 02              4900 	lda	sp,2(sp)
                           4901 ;	main.c 193
                           4902 ; genPlus
                           4903 ; AOP_STK for _set_up_enemy_sloc0_1_0
                           4904 ; genPlusIncr
   07AD F8 00              4905 	lda	hl,0(sp)
   07AF 5E                 4906 	ld	e,(hl)
   07B0 23                 4907 	inc	hl
   07B1 56                 4908 	ld	d,(hl)
   07B2 13                 4909 	inc	de
   07B3 13                 4910 	inc	de
                           4911 ; genAssign
                           4912 ; AOP_HL for _next_sprite_index
   07B4 21 B8 01           4913 	ld	hl,#_next_sprite_index + 0
   07B7 4E                 4914 	ld	c,(hl)
                           4915 ; genPlus
                           4916 ; AOP_HL for _next_sprite_index
                           4917 ; genPlusIncr
   07B8 34                 4918 	inc	(hl)
                           4919 ; genAssign (pointer)
   07B9 79                 4920 	ld	a,c
   07BA 12                 4921 	ld	(de),a
                           4922 ;	main.c 194
                           4923 ; genIpush
   07BB 3E 13              4924 	ld	a,#0x13
   07BD F5                 4925 	push	af
   07BE 33                 4926 	inc	sp
                           4927 ; genIpush
                           4928 ; AOP_HL for _next_sprite_index
   07BF 7E                 4929 	ld	a,(hl)
   07C0 F5                 4930 	push	af
   07C1 33                 4931 	inc	sp
                           4932 ; genCall
   07C2 CD 00 00           4933 	call	_set_sprite_tile
   07C5 E8 02              4934 	lda	sp,2(sp)
                           4935 ;	main.c 195
                           4936 ; genPlus
                           4937 ; AOP_STK for _set_up_enemy_sloc0_1_0
                           4938 ; genPlusIncr
                           4939 ;	genPlusIncr failed
   07C7 F8 00              4940 	lda	hl,0(sp)
   07C9 5E                 4941 	ld	e,(hl)
   07CA 23                 4942 	inc	hl
   07CB 56                 4943 	ld	d,(hl)
   07CC 21 03 00           4944 	ld	hl,#0x0003
   07CF 19                 4945 	add	hl,de
   07D0 5D                 4946 	ld	e,l
   07D1 54                 4947 	ld	d,h
                           4948 ; genAssign
                           4949 ; AOP_HL for _next_sprite_index
   07D2 21 B8 01           4950 	ld	hl,#_next_sprite_index + 0
   07D5 4E                 4951 	ld	c,(hl)
                           4952 ; genPlus
                           4953 ; AOP_HL for _next_sprite_index
                           4954 ; genPlusIncr
   07D6 34                 4955 	inc	(hl)
                           4956 ; genAssign (pointer)
   07D7 79                 4957 	ld	a,c
   07D8 12                 4958 	ld	(de),a
                           4959 ;	main.c 197
                           4960 ; genIpush
                           4961 ; AOP_STK for 
   07D9 F8 09              4962 	lda	hl,9(sp)
   07DB 7E                 4963 	ld	a,(hl)
   07DC F5                 4964 	push	af
   07DD 33                 4965 	inc	sp
                           4966 ; genIpush
                           4967 ; AOP_STK for 
   07DE 2B                 4968 	dec	hl
   07DF 7E                 4969 	ld	a,(hl)
   07E0 F5                 4970 	push	af
   07E1 33                 4971 	inc	sp
                           4972 ; genIpush
                           4973 ; AOP_STK for _set_up_enemy_sloc0_1_0
   07E2 F8 02              4974 	lda	hl,2(sp)
   07E4 2A                 4975 	ld	a,(hl+)
   07E5 66                 4976 	ld	h,(hl)
   07E6 6F                 4977 	ld	l,a
   07E7 E5                 4978 	push	hl
                           4979 ; genCall
   07E8 CD 7D 00           4980 	call	_move_game_character
   07EB E8 04              4981 	lda	sp,4(sp)
                           4982 ; genLabel
   07ED                    4983 00101$:
                           4984 ; genEndFunction
   07ED E8 02              4985 	lda	sp,2(sp)
   07EF C1                 4986 	pop	bc
   07F0 C9                 4987 	ret
   07F1                    4988 ___set_up_enemy_end:
                           4989 ;	main.c 200
                           4990 ; genLabel
                           4991 ; genFunction
                           4992 ;	---------------------------------
                           4993 ; Function fire_bullet
                           4994 ; ---------------------------------
   07F1                    4995 ___fire_bullet_start:
   07F1                    4996 _fire_bullet:
   07F1 C5                 4997 	push	bc
   07F2 E8 FE              4998 	lda	sp,-2(sp)
                           4999 ;	main.c 201
                           5000 ; genCmpEq
                           5001 ; AOP_STK for 
   07F4 F8 06              5002 	lda	hl,6(sp)
   07F6 7E                 5003 	ld	a,(hl)
   07F7 B7                 5004 	or	a,a
   07F8 C2 FD 07           5005 	jp	nz,00122$
   07FB 18 03              5006 	jr	00123$
   07FD                    5007 00122$:
   07FD C3 08 08           5008 	jp	00102$
   0800                    5009 00123$:
                           5010 ;	main.c 202
                           5011 ; genPlus
                           5012 ; genPlusIncr
   0800 11 84 01           5013 	ld	de,#_player + 0 + 4
                           5014 ; genPointerGet
   0803 1A                 5015 	ld	a,(de)
   0804 4F                 5016 	ld	c,a
                           5017 ; genAssign
                           5018 ; AOP_STK for 
   0805 F8 06              5019 	lda	hl,6(sp)
   0807 71                 5020 	ld	(hl),c
                           5021 ; genLabel
   0808                    5022 00102$:
                           5023 ;	main.c 205
                           5024 ; genAnd
                           5025 ; AOP_STK for 
   0808 F8 06              5026 	lda	hl,6(sp)
   080A 7E                 5027 	ld	a,(hl)
   080B CB 4F              5028 	bit	1,a
   080D CA 19 08           5029 	jp	z,00107$
                           5030 ;	main.c 206
                           5031 ; genPlus
                           5032 ; genPlusIncr
   0810 11 92 01           5033 	ld	de,#_bullet + 0 + 7
                           5034 ; genAssign (pointer)
   0813 3E FB              5035 	ld	a,#0xFB
   0815 12                 5036 	ld	(de),a
                           5037 ; genGoto
   0816 C3 30 08           5038 	jp	00108$
                           5039 ; genLabel
   0819                    5040 00107$:
                           5041 ;	main.c 207
                           5042 ; genAnd
                           5043 ; AOP_STK for 
   0819 F8 06              5044 	lda	hl,6(sp)
   081B 7E                 5045 	ld	a,(hl)
   081C CB 47              5046 	bit	0,a
   081E CA 2A 08           5047 	jp	z,00104$
                           5048 ;	main.c 208
                           5049 ; genPlus
                           5050 ; genPlusIncr
   0821 11 92 01           5051 	ld	de,#_bullet + 0 + 7
                           5052 ; genAssign (pointer)
   0824 3E 05              5053 	ld	a,#0x05
   0826 12                 5054 	ld	(de),a
                           5055 ; genGoto
   0827 C3 30 08           5056 	jp	00108$
                           5057 ; genLabel
   082A                    5058 00104$:
                           5059 ;	main.c 210
                           5060 ; genPlus
                           5061 ; genPlusIncr
   082A 11 92 01           5062 	ld	de,#_bullet + 0 + 7
                           5063 ; genAssign (pointer)
   082D 3E 00              5064 	ld	a,#0x00
   082F 12                 5065 	ld	(de),a
                           5066 ; genLabel
   0830                    5067 00108$:
                           5068 ;	main.c 213
                           5069 ; genAnd
                           5070 ; AOP_STK for 
   0830 F8 06              5071 	lda	hl,6(sp)
   0832 7E                 5072 	ld	a,(hl)
   0833 CB 57              5073 	bit	2,a
   0835 CA 41 08           5074 	jp	z,00113$
                           5075 ;	main.c 214
                           5076 ; genPlus
                           5077 ; genPlusIncr
   0838 11 93 01           5078 	ld	de,#_bullet + 0 + 8
                           5079 ; genAssign (pointer)
   083B 3E FB              5080 	ld	a,#0xFB
   083D 12                 5081 	ld	(de),a
                           5082 ; genGoto
   083E C3 58 08           5083 	jp	00114$
                           5084 ; genLabel
   0841                    5085 00113$:
                           5086 ;	main.c 215
                           5087 ; genAnd
                           5088 ; AOP_STK for 
   0841 F8 06              5089 	lda	hl,6(sp)
   0843 7E                 5090 	ld	a,(hl)
   0844 CB 5F              5091 	bit	3,a
   0846 CA 52 08           5092 	jp	z,00110$
                           5093 ;	main.c 216
                           5094 ; genPlus
                           5095 ; genPlusIncr
   0849 11 93 01           5096 	ld	de,#_bullet + 0 + 8
                           5097 ; genAssign (pointer)
   084C 3E 05              5098 	ld	a,#0x05
   084E 12                 5099 	ld	(de),a
                           5100 ; genGoto
   084F C3 58 08           5101 	jp	00114$
                           5102 ; genLabel
   0852                    5103 00110$:
                           5104 ;	main.c 218
                           5105 ; genPlus
                           5106 ; genPlusIncr
   0852 11 93 01           5107 	ld	de,#_bullet + 0 + 8
                           5108 ; genAssign (pointer)
   0855 3E 00              5109 	ld	a,#0x00
   0857 12                 5110 	ld	(de),a
                           5111 ; genLabel
   0858                    5112 00114$:
                           5113 ;	main.c 221
                           5114 ; genPlus
                           5115 ; AOP_STK for _fire_bullet_sloc0_1_0
                           5116 ; genPlusIncr
                           5117 ;	genPlusIncr failed
   0858 11 8B 01           5118 	ld	de,#_bullet + 0
   085B 21 05 00           5119 	ld	hl,#0x0005
   085E 19                 5120 	add	hl,de
   085F 7D                 5121 	ld	a,l
   0860 54                 5122 	ld	d,h
   0861 F8 00              5123 	lda	hl,0(sp)
   0863 22                 5124 	ld	(hl+),a
   0864 72                 5125 	ld	(hl),d
                           5126 ; genPlus
                           5127 ; genPlusIncr
   0865 11 85 01           5128 	ld	de,#_player + 0 + 5
                           5129 ; genPointerGet
   0868 1A                 5130 	ld	a,(de)
   0869 4F                 5131 	ld	c,a
                           5132 ; genPlus
                           5133 ; genPlusIncr
   086A 11 92 01           5134 	ld	de,#_bullet + 0 + 7
                           5135 ; genPointerGet
   086D 1A                 5136 	ld	a,(de)
                           5137 ; genPlus
                           5138 ;	genPlusIncr failed
   086E 81                 5139 	add	a,c
   086F 4F                 5140 	ld	c,a
                           5141 ; genAssign (pointer)
                           5142 ; AOP_STK for _fire_bullet_sloc0_1_0
   0870 2B                 5143 	dec	hl
   0871 5E                 5144 	ld	e,(hl)
   0872 23                 5145 	inc	hl
   0873 56                 5146 	ld	d,(hl)
   0874 79                 5147 	ld	a,c
   0875 12                 5148 	ld	(de),a
                           5149 ;	main.c 222
                           5150 ; genPlus
                           5151 ; AOP_STK for _fire_bullet_sloc0_1_0
                           5152 ; genPlusIncr
                           5153 ;	genPlusIncr failed
   0876 11 8B 01           5154 	ld	de,#_bullet + 0
   0879 21 06 00           5155 	ld	hl,#0x0006
   087C 19                 5156 	add	hl,de
   087D 7D                 5157 	ld	a,l
   087E 54                 5158 	ld	d,h
   087F F8 00              5159 	lda	hl,0(sp)
   0881 22                 5160 	ld	(hl+),a
   0882 72                 5161 	ld	(hl),d
                           5162 ; genPlus
                           5163 ; genPlusIncr
   0883 11 86 01           5164 	ld	de,#_player + 0 + 6
                           5165 ; genPointerGet
   0886 1A                 5166 	ld	a,(de)
   0887 4F                 5167 	ld	c,a
                           5168 ; genPlus
                           5169 ; genPlusIncr
   0888 11 93 01           5170 	ld	de,#_bullet + 0 + 8
                           5171 ; genPointerGet
   088B 1A                 5172 	ld	a,(de)
                           5173 ; genPlus
                           5174 ;	genPlusIncr failed
   088C 81                 5175 	add	a,c
   088D 4F                 5176 	ld	c,a
                           5177 ; genAssign (pointer)
                           5178 ; AOP_STK for _fire_bullet_sloc0_1_0
   088E 2B                 5179 	dec	hl
   088F 5E                 5180 	ld	e,(hl)
   0890 23                 5181 	inc	hl
   0891 56                 5182 	ld	d,(hl)
   0892 79                 5183 	ld	a,c
   0893 12                 5184 	ld	(de),a
                           5185 ;	main.c 223
                           5186 ; genCall
   0894 CD 5C 00           5187 	call	_play_sound
                           5188 ; genLabel
   0897                    5189 00115$:
                           5190 ; genEndFunction
   0897 E8 02              5191 	lda	sp,2(sp)
   0899 C1                 5192 	pop	bc
   089A C9                 5193 	ret
   089B                    5194 ___fire_bullet_end:
                           5195 ;	main.c 226
                           5196 ; genLabel
                           5197 ; genFunction
                           5198 ;	---------------------------------
                           5199 ; Function main
                           5200 ; ---------------------------------
   089B                    5201 ___main_start:
   089B                    5202 _main:
   089B C5                 5203 	push	bc
   089C E8 F2              5204 	lda	sp,-14(sp)
                           5205 ;	main.c 227
                           5206 ; genAssign
                           5207 ; AOP_STK for _main_jpad_1_1
   089E F8 0D              5208 	lda	hl,13(sp)
   08A0 36 00              5209 	ld	(hl),#0x00
                           5210 ;	main.c 229
                           5211 ; genIpush
   08A2 21 00 00           5212 	ld	hl,#_SpriteData + 0
   08A5 E5                 5213 	push	hl
                           5214 ; genIpush
   08A6 3E 18              5215 	ld	a,#0x18
   08A8 F5                 5216 	push	af
   08A9 33                 5217 	inc	sp
                           5218 ; genIpush
   08AA 3E 00              5219 	ld	a,#0x00
   08AC F5                 5220 	push	af
   08AD 33                 5221 	inc	sp
                           5222 ; genCall
   08AE CD 00 00           5223 	call	_set_sprite_data
   08B1 E8 04              5224 	lda	sp,4(sp)
                           5225 ;	main.c 230
                           5226 ; genCall
   08B3 CD 86 05           5227 	call	_set_up_player
                           5228 ;	main.c 231
                           5229 ; genCall
   08B6 CD 4A 06           5230 	call	_set_up_bullet
                           5231 ;	main.c 232
                           5232 ; genIpush
   08B9 3E 01              5233 	ld	a,#0x01
   08BB F5                 5234 	push	af
   08BC 33                 5235 	inc	sp
                           5236 ; genIpush
   08BD 3E 01              5237 	ld	a,#0x01
   08BF F5                 5238 	push	af
   08C0 33                 5239 	inc	sp
                           5240 ; genIpush
   08C1 3E 32              5241 	ld	a,#0x32
   08C3 F5                 5242 	push	af
   08C4 33                 5243 	inc	sp
                           5244 ; genIpush
   08C5 3E 14              5245 	ld	a,#0x14
   08C7 F5                 5246 	push	af
   08C8 33                 5247 	inc	sp
                           5248 ; genIpush
   08C9 21 96 01           5249 	ld	hl,#_enemies + 0
   08CC E5                 5250 	push	hl
                           5251 ; genCall
   08CD CD 08 07           5252 	call	_set_up_enemy
   08D0 E8 06              5253 	lda	sp,6(sp)
                           5254 ;	main.c 233
                           5255 ; genPlus
                           5256 ; genPlusIncr
                           5257 ;	genPlusIncr failed
   08D2 3E 96              5258 	ld	a,#<_enemies
   08D4 C6 0B              5259 	add	a,#0x0B
   08D6 47                 5260 	ld	b,a
   08D7 3E 01              5261 	ld	a,#>_enemies
   08D9 CE 00              5262 	adc	a,#0x00
   08DB 4F                 5263 	ld	c,a
                           5264 ; genIpush
   08DC 3E 01              5265 	ld	a,#0x01
   08DE F5                 5266 	push	af
   08DF 33                 5267 	inc	sp
                           5268 ; genIpush
   08E0 3E FF              5269 	ld	a,#0xFF
   08E2 F5                 5270 	push	af
   08E3 33                 5271 	inc	sp
                           5272 ; genIpush
   08E4 3E 14              5273 	ld	a,#0x14
   08E6 F5                 5274 	push	af
   08E7 33                 5275 	inc	sp
                           5276 ; genIpush
   08E8 3E 64              5277 	ld	a,#0x64
   08EA F5                 5278 	push	af
   08EB 33                 5279 	inc	sp
                           5280 ; genIpush
   08EC 68                 5281 	ld	l,b
   08ED 61                 5282 	ld	h,c
   08EE E5                 5283 	push	hl
                           5284 ; genCall
   08EF CD 08 07           5285 	call	_set_up_enemy
   08F2 E8 06              5286 	lda	sp,6(sp)
                           5287 ;	main.c 234
                           5288 ; genPlus
                           5289 ; genPlusIncr
   08F4 01 AC 01           5290 	ld	bc,#_enemies + 0 + 22
                           5291 ; genIpush
   08F7 3E FF              5292 	ld	a,#0xFF
   08F9 F5                 5293 	push	af
   08FA 33                 5294 	inc	sp
                           5295 ; genIpush
   08FB 3E FF              5296 	ld	a,#0xFF
   08FD F5                 5297 	push	af
   08FE 33                 5298 	inc	sp
                           5299 ; genIpush
   08FF 3E 64              5300 	ld	a,#0x64
   0901 F5                 5301 	push	af
   0902 33                 5302 	inc	sp
                           5303 ; genIpush
   0903 3E 32              5304 	ld	a,#0x32
   0905 F5                 5305 	push	af
   0906 33                 5306 	inc	sp
                           5307 ; genIpush
   0907 C5                 5308 	push	bc
                           5309 ; genCall
   0908 CD 08 07           5310 	call	_set_up_enemy
   090B E8 06              5311 	lda	sp,6(sp)
                           5312 ;	main.c 236
                           5313 ; genOr
                           5314 ; AOP_SFR for _LCDC_REG
                           5315 ; Type res[4] = l[4]&r[1]
                           5316 ; Size res[1] = l[1]&r[1]
   090D F0 00              5317 	ldh	a,(_LCDC_REG+0) ; x
   090F F6 80              5318 	or	a,#0x80
   0911 E0 00              5319 	ldh	(_LCDC_REG+0),a
                           5320 ;	main.c 237
                           5321 ; genOr
                           5322 ; AOP_SFR for _LCDC_REG
                           5323 ; Type res[4] = l[4]&r[1]
                           5324 ; Size res[1] = l[1]&r[1]
   0913 F0 00              5325 	ldh	a,(_LCDC_REG+0) ; x
   0915 F6 02              5326 	or	a,#0x02
   0917 E0 00              5327 	ldh	(_LCDC_REG+0),a
                           5328 ;	main.c 239
                           5329 ; genLabel
   0919                    5330 00134$:
                           5331 ;	main.c 240
                           5332 ; genPlus
                           5333 ; AOP_HL for _update_count
                           5334 ; genPlusIncr
                           5335 ;	genPlusIncr failed
   0919 21 B7 01           5336 	ld	hl,#_update_count + 0
   091C 7E                 5337 	ld	a,(hl)
   091D C6 01              5338 	add	a,#0x01
   091F 4F                 5339 	ld	c,a
                           5340 ; genIpush
   0920 3E 02              5341 	ld	a,#0x02
   0922 F5                 5342 	push	af
   0923 33                 5343 	inc	sp
                           5344 ; genIpush
   0924 79                 5345 	ld	a,c
   0925 F5                 5346 	push	af
   0926 33                 5347 	inc	sp
                           5348 ; genCall
   0927 CD 00 00           5349 	call	__moduchar
                           5350 ; AOP_HL for _update_count
   092A 21 B7 01           5351 	ld	hl,#_update_count + 0
   092D 73                 5352 	ld	(hl),e
   092E E8 02              5353 	lda	sp,2(sp)
                           5354 ;	main.c 241
                           5355 ; genCall
   0930 CD 00 00           5356 	call	_joypad
   0933 4B                 5357 	ld	c,e
                           5358 ; genOr
                           5359 ; AOP_STK for _main_jpad_1_1
                           5360 ; Type res[5] = l[5]&r[2]
                           5361 ; Size res[1] = l[1]&r[1]
   0934 F8 0D              5362 	lda	hl,13(sp)
   0936 7E                 5363 	ld	a,(hl)
   0937 B1                 5364 	or	a,c
   0938 77                 5365 	ld	(hl),a
                           5366 ;	main.c 243
                           5367 ; genCmpEq
                           5368 ; AOP_HL for _update_count
   0939 21 B7 01           5369 	ld	hl,#_update_count + 0
   093C 7E                 5370 	ld	a,(hl)
   093D B7                 5371 	or	a,a
   093E C2 43 09           5372 	jp	nz,00160$
   0941 18 03              5373 	jr	00161$
   0943                    5374 00160$:
   0943 C3 6C 0C           5375 	jp	00132$
   0946                    5376 00161$:
                           5377 ;	main.c 244
                           5378 ; genAnd
                           5379 ; AOP_STK for _main_jpad_1_1
   0946 F8 0D              5380 	lda	hl,13(sp)
   0948 7E                 5381 	ld	a,(hl)
   0949 CB 4F              5382 	bit	1,a
   094B CA B8 09           5383 	jp	z,00102$
                           5384 ;	main.c 245
                           5385 ; genPlus
                           5386 ; AOP_STK for _main_sloc1_1_0
                           5387 ; genPlusIncr
                           5388 ;	genPlusIncr failed
   094E 11 80 01           5389 	ld	de,#_player + 0
   0951 21 07 00           5390 	ld	hl,#0x0007
   0954 19                 5391 	add	hl,de
   0955 7D                 5392 	ld	a,l
   0956 54                 5393 	ld	d,h
   0957 F8 08              5394 	lda	hl,8(sp)
   0959 22                 5395 	ld	(hl+),a
   095A 72                 5396 	ld	(hl),d
                           5397 ; genPointerGet
                           5398 ; AOP_STK for _main_sloc1_1_0
                           5399 ; AOP_STK for _main_sloc0_1_0
   095B 2B                 5400 	dec	hl
   095C 5E                 5401 	ld	e,(hl)
   095D 23                 5402 	inc	hl
   095E 56                 5403 	ld	d,(hl)
   095F 1A                 5404 	ld	a,(de)
   0960 23                 5405 	inc	hl
   0961 77                 5406 	ld	(hl),a
                           5407 ; genMinus
                           5408 ; AOP_STK for _main_sloc0_1_0
   0962 7E                 5409 	ld	a,(hl)
   0963 C6 FF              5410 	add	a,#0xFF
   0965 4F                 5411 	ld	c,a
                           5412 ; genAssign (pointer)
                           5413 ; AOP_STK for _main_sloc1_1_0
   0966 2B                 5414 	dec	hl
   0967 2B                 5415 	dec	hl
   0968 5E                 5416 	ld	e,(hl)
   0969 23                 5417 	inc	hl
   096A 56                 5418 	ld	d,(hl)
   096B 79                 5419 	ld	a,c
   096C 12                 5420 	ld	(de),a
                           5421 ;	main.c 246
                           5422 ; genPlus
                           5423 ; genPlusIncr
   096D 11 84 01           5424 	ld	de,#_player + 0 + 4
                           5425 ; genAssign (pointer)
                           5426 ; AOP_STK for _main_jpad_1_1
   0970 F8 0D              5427 	lda	hl,13(sp)
   0972 7E                 5428 	ld	a,(hl)
   0973 12                 5429 	ld	(de),a
                           5430 ;	main.c 248
                           5431 ; genPointerGet
   0974 11 80 01           5432 	ld	de,#_player + 0
   0977 1A                 5433 	ld	a,(de)
   0978 4F                 5434 	ld	c,a
                           5435 ; genIpush
   0979 3E 0C              5436 	ld	a,#0x0C
   097B F5                 5437 	push	af
   097C 33                 5438 	inc	sp
                           5439 ; genIpush
   097D 79                 5440 	ld	a,c
   097E F5                 5441 	push	af
   097F 33                 5442 	inc	sp
                           5443 ; genCall
   0980 CD 00 00           5444 	call	_set_sprite_tile
   0983 E8 02              5445 	lda	sp,2(sp)
                           5446 ;	main.c 249
                           5447 ; genPlus
                           5448 ; genPlusIncr
   0985 11 81 01           5449 	ld	de,#_player + 0 + 1
                           5450 ; genPointerGet
   0988 1A                 5451 	ld	a,(de)
   0989 4F                 5452 	ld	c,a
                           5453 ; genIpush
   098A 3E 0D              5454 	ld	a,#0x0D
   098C F5                 5455 	push	af
   098D 33                 5456 	inc	sp
                           5457 ; genIpush
   098E 79                 5458 	ld	a,c
   098F F5                 5459 	push	af
   0990 33                 5460 	inc	sp
                           5461 ; genCall
   0991 CD 00 00           5462 	call	_set_sprite_tile
   0994 E8 02              5463 	lda	sp,2(sp)
                           5464 ;	main.c 250
                           5465 ; genPlus
                           5466 ; genPlusIncr
   0996 11 82 01           5467 	ld	de,#_player + 0 + 2
                           5468 ; genPointerGet
   0999 1A                 5469 	ld	a,(de)
   099A 4F                 5470 	ld	c,a
                           5471 ; genIpush
   099B 3E 0E              5472 	ld	a,#0x0E
   099D F5                 5473 	push	af
   099E 33                 5474 	inc	sp
                           5475 ; genIpush
   099F 79                 5476 	ld	a,c
   09A0 F5                 5477 	push	af
   09A1 33                 5478 	inc	sp
                           5479 ; genCall
   09A2 CD 00 00           5480 	call	_set_sprite_tile
   09A5 E8 02              5481 	lda	sp,2(sp)
                           5482 ;	main.c 251
                           5483 ; genPlus
                           5484 ; genPlusIncr
   09A7 11 83 01           5485 	ld	de,#_player + 0 + 3
                           5486 ; genPointerGet
   09AA 1A                 5487 	ld	a,(de)
   09AB 4F                 5488 	ld	c,a
                           5489 ; genIpush
   09AC 3E 0F              5490 	ld	a,#0x0F
   09AE F5                 5491 	push	af
   09AF 33                 5492 	inc	sp
                           5493 ; genIpush
   09B0 79                 5494 	ld	a,c
   09B1 F5                 5495 	push	af
   09B2 33                 5496 	inc	sp
                           5497 ; genCall
   09B3 CD 00 00           5498 	call	_set_sprite_tile
   09B6 E8 02              5499 	lda	sp,2(sp)
                           5500 ; genLabel
   09B8                    5501 00102$:
                           5502 ;	main.c 254
                           5503 ; genAnd
                           5504 ; AOP_STK for _main_jpad_1_1
   09B8 F8 0D              5505 	lda	hl,13(sp)
   09BA 7E                 5506 	ld	a,(hl)
   09BB CB 47              5507 	bit	0,a
   09BD CA 2A 0A           5508 	jp	z,00104$
                           5509 ;	main.c 255
                           5510 ; genPlus
                           5511 ; AOP_STK for _main_sloc2_1_0
                           5512 ; genPlusIncr
                           5513 ;	genPlusIncr failed
   09C0 11 80 01           5514 	ld	de,#_player + 0
   09C3 21 07 00           5515 	ld	hl,#0x0007
   09C6 19                 5516 	add	hl,de
   09C7 7D                 5517 	ld	a,l
   09C8 54                 5518 	ld	d,h
   09C9 F8 06              5519 	lda	hl,6(sp)
   09CB 22                 5520 	ld	(hl+),a
   09CC 72                 5521 	ld	(hl),d
                           5522 ; genPointerGet
                           5523 ; AOP_STK for _main_sloc2_1_0
                           5524 ; AOP_STK for _main_sloc1_1_0
   09CD 2B                 5525 	dec	hl
   09CE 5E                 5526 	ld	e,(hl)
   09CF 23                 5527 	inc	hl
   09D0 56                 5528 	ld	d,(hl)
   09D1 1A                 5529 	ld	a,(de)
   09D2 23                 5530 	inc	hl
   09D3 77                 5531 	ld	(hl),a
                           5532 ; genPlus
                           5533 ; AOP_STK for _main_sloc1_1_0
                           5534 ; genPlusIncr
                           5535 ;	genPlusIncr failed
   09D4 7E                 5536 	ld	a,(hl)
   09D5 C6 01              5537 	add	a,#0x01
   09D7 4F                 5538 	ld	c,a
                           5539 ; genAssign (pointer)
                           5540 ; AOP_STK for _main_sloc2_1_0
   09D8 2B                 5541 	dec	hl
   09D9 2B                 5542 	dec	hl
   09DA 5E                 5543 	ld	e,(hl)
   09DB 23                 5544 	inc	hl
   09DC 56                 5545 	ld	d,(hl)
   09DD 79                 5546 	ld	a,c
   09DE 12                 5547 	ld	(de),a
                           5548 ;	main.c 256
                           5549 ; genPlus
                           5550 ; genPlusIncr
   09DF 11 84 01           5551 	ld	de,#_player + 0 + 4
                           5552 ; genAssign (pointer)
                           5553 ; AOP_STK for _main_jpad_1_1
   09E2 F8 0D              5554 	lda	hl,13(sp)
   09E4 7E                 5555 	ld	a,(hl)
   09E5 12                 5556 	ld	(de),a
                           5557 ;	main.c 258
                           5558 ; genPointerGet
   09E6 11 80 01           5559 	ld	de,#_player + 0
   09E9 1A                 5560 	ld	a,(de)
   09EA 4F                 5561 	ld	c,a
                           5562 ; genIpush
   09EB 3E 08              5563 	ld	a,#0x08
   09ED F5                 5564 	push	af
   09EE 33                 5565 	inc	sp
                           5566 ; genIpush
   09EF 79                 5567 	ld	a,c
   09F0 F5                 5568 	push	af
   09F1 33                 5569 	inc	sp
                           5570 ; genCall
   09F2 CD 00 00           5571 	call	_set_sprite_tile
   09F5 E8 02              5572 	lda	sp,2(sp)
                           5573 ;	main.c 259
                           5574 ; genPlus
                           5575 ; genPlusIncr
   09F7 11 81 01           5576 	ld	de,#_player + 0 + 1
                           5577 ; genPointerGet
   09FA 1A                 5578 	ld	a,(de)
   09FB 4F                 5579 	ld	c,a
                           5580 ; genIpush
   09FC 3E 09              5581 	ld	a,#0x09
   09FE F5                 5582 	push	af
   09FF 33                 5583 	inc	sp
                           5584 ; genIpush
   0A00 79                 5585 	ld	a,c
   0A01 F5                 5586 	push	af
   0A02 33                 5587 	inc	sp
                           5588 ; genCall
   0A03 CD 00 00           5589 	call	_set_sprite_tile
   0A06 E8 02              5590 	lda	sp,2(sp)
                           5591 ;	main.c 260
                           5592 ; genPlus
                           5593 ; genPlusIncr
   0A08 11 82 01           5594 	ld	de,#_player + 0 + 2
                           5595 ; genPointerGet
   0A0B 1A                 5596 	ld	a,(de)
   0A0C 4F                 5597 	ld	c,a
                           5598 ; genIpush
   0A0D 3E 0A              5599 	ld	a,#0x0A
   0A0F F5                 5600 	push	af
   0A10 33                 5601 	inc	sp
                           5602 ; genIpush
   0A11 79                 5603 	ld	a,c
   0A12 F5                 5604 	push	af
   0A13 33                 5605 	inc	sp
                           5606 ; genCall
   0A14 CD 00 00           5607 	call	_set_sprite_tile
   0A17 E8 02              5608 	lda	sp,2(sp)
                           5609 ;	main.c 261
                           5610 ; genPlus
                           5611 ; genPlusIncr
   0A19 11 83 01           5612 	ld	de,#_player + 0 + 3
                           5613 ; genPointerGet
   0A1C 1A                 5614 	ld	a,(de)
   0A1D 4F                 5615 	ld	c,a
                           5616 ; genIpush
   0A1E 3E 0B              5617 	ld	a,#0x0B
   0A20 F5                 5618 	push	af
   0A21 33                 5619 	inc	sp
                           5620 ; genIpush
   0A22 79                 5621 	ld	a,c
   0A23 F5                 5622 	push	af
   0A24 33                 5623 	inc	sp
                           5624 ; genCall
   0A25 CD 00 00           5625 	call	_set_sprite_tile
   0A28 E8 02              5626 	lda	sp,2(sp)
                           5627 ; genLabel
   0A2A                    5628 00104$:
                           5629 ;	main.c 264
                           5630 ; genAnd
                           5631 ; AOP_STK for _main_jpad_1_1
   0A2A F8 0D              5632 	lda	hl,13(sp)
   0A2C 7E                 5633 	ld	a,(hl)
   0A2D CB 57              5634 	bit	2,a
   0A2F CA 9D 0A           5635 	jp	z,00106$
                           5636 ;	main.c 265
                           5637 ; genPlus
                           5638 ; AOP_STK for _main_sloc1_1_0
                           5639 ; genPlusIncr
                           5640 ;	genPlusIncr failed
   0A32 11 80 01           5641 	ld	de,#_player + 0
   0A35 21 08 00           5642 	ld	hl,#0x0008
   0A38 19                 5643 	add	hl,de
   0A39 7D                 5644 	ld	a,l
   0A3A 54                 5645 	ld	d,h
   0A3B F8 08              5646 	lda	hl,8(sp)
   0A3D 22                 5647 	ld	(hl+),a
   0A3E 72                 5648 	ld	(hl),d
                           5649 ; genPointerGet
                           5650 ; AOP_STK for _main_sloc1_1_0
                           5651 ; AOP_STK for _main_sloc2_1_0
   0A3F 2B                 5652 	dec	hl
   0A40 5E                 5653 	ld	e,(hl)
   0A41 23                 5654 	inc	hl
   0A42 56                 5655 	ld	d,(hl)
   0A43 1A                 5656 	ld	a,(de)
   0A44 F8 06              5657 	lda	hl,6(sp)
   0A46 77                 5658 	ld	(hl),a
                           5659 ; genMinus
                           5660 ; AOP_STK for _main_sloc2_1_0
   0A47 7E                 5661 	ld	a,(hl)
   0A48 C6 FF              5662 	add	a,#0xFF
   0A4A 4F                 5663 	ld	c,a
                           5664 ; genAssign (pointer)
                           5665 ; AOP_STK for _main_sloc1_1_0
   0A4B 23                 5666 	inc	hl
   0A4C 23                 5667 	inc	hl
   0A4D 5E                 5668 	ld	e,(hl)
   0A4E 23                 5669 	inc	hl
   0A4F 56                 5670 	ld	d,(hl)
   0A50 79                 5671 	ld	a,c
   0A51 12                 5672 	ld	(de),a
                           5673 ;	main.c 266
                           5674 ; genPlus
                           5675 ; genPlusIncr
   0A52 11 84 01           5676 	ld	de,#_player + 0 + 4
                           5677 ; genAssign (pointer)
                           5678 ; AOP_STK for _main_jpad_1_1
   0A55 F8 0D              5679 	lda	hl,13(sp)
   0A57 7E                 5680 	ld	a,(hl)
   0A58 12                 5681 	ld	(de),a
                           5682 ;	main.c 268
                           5683 ; genPointerGet
   0A59 11 80 01           5684 	ld	de,#_player + 0
   0A5C 1A                 5685 	ld	a,(de)
   0A5D 4F                 5686 	ld	c,a
                           5687 ; genIpush
   0A5E 3E 00              5688 	ld	a,#0x00
   0A60 F5                 5689 	push	af
   0A61 33                 5690 	inc	sp
                           5691 ; genIpush
   0A62 79                 5692 	ld	a,c
   0A63 F5                 5693 	push	af
   0A64 33                 5694 	inc	sp
                           5695 ; genCall
   0A65 CD 00 00           5696 	call	_set_sprite_tile
   0A68 E8 02              5697 	lda	sp,2(sp)
                           5698 ;	main.c 269
                           5699 ; genPlus
                           5700 ; genPlusIncr
   0A6A 11 81 01           5701 	ld	de,#_player + 0 + 1
                           5702 ; genPointerGet
   0A6D 1A                 5703 	ld	a,(de)
   0A6E 4F                 5704 	ld	c,a
                           5705 ; genIpush
   0A6F 3E 01              5706 	ld	a,#0x01
   0A71 F5                 5707 	push	af
   0A72 33                 5708 	inc	sp
                           5709 ; genIpush
   0A73 79                 5710 	ld	a,c
   0A74 F5                 5711 	push	af
   0A75 33                 5712 	inc	sp
                           5713 ; genCall
   0A76 CD 00 00           5714 	call	_set_sprite_tile
   0A79 E8 02              5715 	lda	sp,2(sp)
                           5716 ;	main.c 270
                           5717 ; genPlus
                           5718 ; genPlusIncr
   0A7B 11 82 01           5719 	ld	de,#_player + 0 + 2
                           5720 ; genPointerGet
   0A7E 1A                 5721 	ld	a,(de)
   0A7F 4F                 5722 	ld	c,a
                           5723 ; genIpush
   0A80 3E 02              5724 	ld	a,#0x02
   0A82 F5                 5725 	push	af
   0A83 33                 5726 	inc	sp
                           5727 ; genIpush
   0A84 79                 5728 	ld	a,c
   0A85 F5                 5729 	push	af
   0A86 33                 5730 	inc	sp
                           5731 ; genCall
   0A87 CD 00 00           5732 	call	_set_sprite_tile
   0A8A E8 02              5733 	lda	sp,2(sp)
                           5734 ;	main.c 271
                           5735 ; genPlus
                           5736 ; genPlusIncr
   0A8C 11 83 01           5737 	ld	de,#_player + 0 + 3
                           5738 ; genPointerGet
   0A8F 1A                 5739 	ld	a,(de)
   0A90 4F                 5740 	ld	c,a
                           5741 ; genIpush
   0A91 3E 03              5742 	ld	a,#0x03
   0A93 F5                 5743 	push	af
   0A94 33                 5744 	inc	sp
                           5745 ; genIpush
   0A95 79                 5746 	ld	a,c
   0A96 F5                 5747 	push	af
   0A97 33                 5748 	inc	sp
                           5749 ; genCall
   0A98 CD 00 00           5750 	call	_set_sprite_tile
   0A9B E8 02              5751 	lda	sp,2(sp)
                           5752 ; genLabel
   0A9D                    5753 00106$:
                           5754 ;	main.c 274
                           5755 ; genAnd
                           5756 ; AOP_STK for _main_jpad_1_1
   0A9D F8 0D              5757 	lda	hl,13(sp)
   0A9F 7E                 5758 	ld	a,(hl)
   0AA0 CB 5F              5759 	bit	3,a
   0AA2 CA 10 0B           5760 	jp	z,00108$
                           5761 ;	main.c 275
                           5762 ; genPlus
                           5763 ; AOP_STK for _main_sloc1_1_0
                           5764 ; genPlusIncr
                           5765 ;	genPlusIncr failed
   0AA5 11 80 01           5766 	ld	de,#_player + 0
   0AA8 21 08 00           5767 	ld	hl,#0x0008
   0AAB 19                 5768 	add	hl,de
   0AAC 7D                 5769 	ld	a,l
   0AAD 54                 5770 	ld	d,h
   0AAE F8 08              5771 	lda	hl,8(sp)
   0AB0 22                 5772 	ld	(hl+),a
   0AB1 72                 5773 	ld	(hl),d
                           5774 ; genPointerGet
                           5775 ; AOP_STK for _main_sloc1_1_0
                           5776 ; AOP_STK for _main_sloc2_1_0
   0AB2 2B                 5777 	dec	hl
   0AB3 5E                 5778 	ld	e,(hl)
   0AB4 23                 5779 	inc	hl
   0AB5 56                 5780 	ld	d,(hl)
   0AB6 1A                 5781 	ld	a,(de)
   0AB7 F8 06              5782 	lda	hl,6(sp)
   0AB9 77                 5783 	ld	(hl),a
                           5784 ; genPlus
                           5785 ; AOP_STK for _main_sloc2_1_0
                           5786 ; genPlusIncr
                           5787 ;	genPlusIncr failed
   0ABA 7E                 5788 	ld	a,(hl)
   0ABB C6 01              5789 	add	a,#0x01
   0ABD 4F                 5790 	ld	c,a
                           5791 ; genAssign (pointer)
                           5792 ; AOP_STK for _main_sloc1_1_0
   0ABE 23                 5793 	inc	hl
   0ABF 23                 5794 	inc	hl
   0AC0 5E                 5795 	ld	e,(hl)
   0AC1 23                 5796 	inc	hl
   0AC2 56                 5797 	ld	d,(hl)
   0AC3 79                 5798 	ld	a,c
   0AC4 12                 5799 	ld	(de),a
                           5800 ;	main.c 276
                           5801 ; genPlus
                           5802 ; genPlusIncr
   0AC5 11 84 01           5803 	ld	de,#_player + 0 + 4
                           5804 ; genAssign (pointer)
                           5805 ; AOP_STK for _main_jpad_1_1
   0AC8 F8 0D              5806 	lda	hl,13(sp)
   0ACA 7E                 5807 	ld	a,(hl)
   0ACB 12                 5808 	ld	(de),a
                           5809 ;	main.c 278
                           5810 ; genPointerGet
   0ACC 11 80 01           5811 	ld	de,#_player + 0
   0ACF 1A                 5812 	ld	a,(de)
   0AD0 4F                 5813 	ld	c,a
                           5814 ; genIpush
   0AD1 3E 04              5815 	ld	a,#0x04
   0AD3 F5                 5816 	push	af
   0AD4 33                 5817 	inc	sp
                           5818 ; genIpush
   0AD5 79                 5819 	ld	a,c
   0AD6 F5                 5820 	push	af
   0AD7 33                 5821 	inc	sp
                           5822 ; genCall
   0AD8 CD 00 00           5823 	call	_set_sprite_tile
   0ADB E8 02              5824 	lda	sp,2(sp)
                           5825 ;	main.c 279
                           5826 ; genPlus
                           5827 ; genPlusIncr
   0ADD 11 81 01           5828 	ld	de,#_player + 0 + 1
                           5829 ; genPointerGet
   0AE0 1A                 5830 	ld	a,(de)
   0AE1 4F                 5831 	ld	c,a
                           5832 ; genIpush
   0AE2 3E 05              5833 	ld	a,#0x05
   0AE4 F5                 5834 	push	af
   0AE5 33                 5835 	inc	sp
                           5836 ; genIpush
   0AE6 79                 5837 	ld	a,c
   0AE7 F5                 5838 	push	af
   0AE8 33                 5839 	inc	sp
                           5840 ; genCall
   0AE9 CD 00 00           5841 	call	_set_sprite_tile
   0AEC E8 02              5842 	lda	sp,2(sp)
                           5843 ;	main.c 280
                           5844 ; genPlus
                           5845 ; genPlusIncr
   0AEE 11 82 01           5846 	ld	de,#_player + 0 + 2
                           5847 ; genPointerGet
   0AF1 1A                 5848 	ld	a,(de)
   0AF2 4F                 5849 	ld	c,a
                           5850 ; genIpush
   0AF3 3E 06              5851 	ld	a,#0x06
   0AF5 F5                 5852 	push	af
   0AF6 33                 5853 	inc	sp
                           5854 ; genIpush
   0AF7 79                 5855 	ld	a,c
   0AF8 F5                 5856 	push	af
   0AF9 33                 5857 	inc	sp
                           5858 ; genCall
   0AFA CD 00 00           5859 	call	_set_sprite_tile
   0AFD E8 02              5860 	lda	sp,2(sp)
                           5861 ;	main.c 281
                           5862 ; genPlus
                           5863 ; genPlusIncr
   0AFF 11 83 01           5864 	ld	de,#_player + 0 + 3
                           5865 ; genPointerGet
   0B02 1A                 5866 	ld	a,(de)
   0B03 4F                 5867 	ld	c,a
                           5868 ; genIpush
   0B04 3E 07              5869 	ld	a,#0x07
   0B06 F5                 5870 	push	af
   0B07 33                 5871 	inc	sp
                           5872 ; genIpush
   0B08 79                 5873 	ld	a,c
   0B09 F5                 5874 	push	af
   0B0A 33                 5875 	inc	sp
                           5876 ; genCall
   0B0B CD 00 00           5877 	call	_set_sprite_tile
   0B0E E8 02              5878 	lda	sp,2(sp)
                           5879 ; genLabel
   0B10                    5880 00108$:
                           5881 ;	main.c 284
                           5882 ; genAnd
                           5883 ; AOP_STK for _main_jpad_1_1
   0B10 F8 0D              5884 	lda	hl,13(sp)
   0B12 7E                 5885 	ld	a,(hl)
   0B13 CB 67              5886 	bit	4,a
   0B15 CA 25 0B           5887 	jp	z,00110$
                           5888 ;	main.c 285
                           5889 ; genPlus
                           5890 ; genPlusIncr
   0B18 11 84 01           5891 	ld	de,#_player + 0 + 4
                           5892 ; genPointerGet
   0B1B 1A                 5893 	ld	a,(de)
   0B1C 4F                 5894 	ld	c,a
                           5895 ; genIpush
   0B1D 79                 5896 	ld	a,c
   0B1E F5                 5897 	push	af
   0B1F 33                 5898 	inc	sp
                           5899 ; genCall
   0B20 CD F1 07           5900 	call	_fire_bullet
   0B23 E8 01              5901 	lda	sp,1(sp)
                           5902 ; genLabel
   0B25                    5903 00110$:
                           5904 ;	main.c 288
                           5905 ; genAssign
                           5906 ; AOP_STK for _main_jpad_1_1
   0B25 F8 0D              5907 	lda	hl,13(sp)
   0B27 36 00              5908 	ld	(hl),#0x00
                           5909 ;	main.c 290
                           5910 ; genPlus
                           5911 ; genPlusIncr
   0B29 01 87 01           5912 	ld	bc,#_player + 0 + 7
                           5913 ; genPointerGet
                           5914 ; AOP_STK for _main_sloc2_1_0
   0B2C 0A                 5915 	ld	a,(bc)
   0B2D F8 06              5916 	lda	hl,6(sp)
   0B2F 77                 5917 	ld	(hl),a
                           5918 ; genCmpLt
                           5919 ; AOP_STK for _main_sloc2_1_0
   0B30 7E                 5920 	ld	a,(hl)
   0B31 EE 80              5921 	xor	a,#0x80
   0B33 FE 7D              5922 	cp	#0xFD^0x80
   0B35 D2 3E 0B           5923 	jp	nc,00114$
                           5924 ;	main.c 291
                           5925 ; genAssign (pointer)
   0B38 3E FD              5926 	ld	a,#0xFD
   0B3A 02                 5927 	ld	(bc),a
                           5928 ; genGoto
   0B3B C3 50 0B           5929 	jp	00115$
                           5930 ; genLabel
   0B3E                    5931 00114$:
                           5932 ;	main.c 292
                           5933 ; genPointerGet
                           5934 ; AOP_STK for _main_sloc2_1_0
   0B3E 0A                 5935 	ld	a,(bc)
   0B3F F8 06              5936 	lda	hl,6(sp)
   0B41 77                 5937 	ld	(hl),a
                           5938 ; genCmpGt
                           5939 ; AOP_STK for _main_sloc2_1_0
   0B42 1E 83              5940 	ld	e,#0x83
   0B44 7E                 5941 	ld	a,(hl)
   0B45 EE 80              5942 	xor	a,#0x80
   0B47 57                 5943 	ld	d,a
   0B48 7B                 5944 	ld	a,e
   0B49 9A                 5945 	sbc	a,d
   0B4A D2 50 0B           5946 	jp	nc,00115$
                           5947 ;	main.c 293
                           5948 ; genAssign (pointer)
   0B4D 3E 03              5949 	ld	a,#0x03
   0B4F 02                 5950 	ld	(bc),a
                           5951 ; genLabel
   0B50                    5952 00115$:
                           5953 ;	main.c 296
                           5954 ; genPlus
                           5955 ; genPlusIncr
   0B50 01 88 01           5956 	ld	bc,#_player + 0 + 8
                           5957 ; genPointerGet
                           5958 ; AOP_STK for _main_sloc2_1_0
   0B53 0A                 5959 	ld	a,(bc)
   0B54 F8 06              5960 	lda	hl,6(sp)
   0B56 77                 5961 	ld	(hl),a
                           5962 ; genCmpLt
                           5963 ; AOP_STK for _main_sloc2_1_0
   0B57 7E                 5964 	ld	a,(hl)
   0B58 EE 80              5965 	xor	a,#0x80
   0B5A FE 7D              5966 	cp	#0xFD^0x80
   0B5C D2 65 0B           5967 	jp	nc,00119$
                           5968 ;	main.c 297
                           5969 ; genAssign (pointer)
   0B5F 3E FD              5970 	ld	a,#0xFD
   0B61 02                 5971 	ld	(bc),a
                           5972 ; genGoto
   0B62 C3 77 0B           5973 	jp	00120$
                           5974 ; genLabel
   0B65                    5975 00119$:
                           5976 ;	main.c 298
                           5977 ; genPointerGet
                           5978 ; AOP_STK for _main_sloc2_1_0
   0B65 0A                 5979 	ld	a,(bc)
   0B66 F8 06              5980 	lda	hl,6(sp)
   0B68 77                 5981 	ld	(hl),a
                           5982 ; genCmpGt
                           5983 ; AOP_STK for _main_sloc2_1_0
   0B69 1E 83              5984 	ld	e,#0x83
   0B6B 7E                 5985 	ld	a,(hl)
   0B6C EE 80              5986 	xor	a,#0x80
   0B6E 57                 5987 	ld	d,a
   0B6F 7B                 5988 	ld	a,e
   0B70 9A                 5989 	sbc	a,d
   0B71 D2 77 0B           5990 	jp	nc,00120$
                           5991 ;	main.c 299
                           5992 ; genAssign (pointer)
   0B74 3E 03              5993 	ld	a,#0x03
   0B76 02                 5994 	ld	(bc),a
                           5995 ; genLabel
   0B77                    5996 00120$:
                           5997 ;	main.c 302
                           5998 ; genIpush
   0B77 21 80 01           5999 	ld	hl,#_player + 0
   0B7A E5                 6000 	push	hl
                           6001 ; genCall
   0B7B CD 03 01           6002 	call	_update_game_character
   0B7E E8 02              6003 	lda	sp,2(sp)
                           6004 ;	main.c 303
                           6005 ; genIpush
   0B80 21 8B 01           6006 	ld	hl,#_bullet + 0
   0B83 E5                 6007 	push	hl
                           6008 ; genCall
   0B84 CD 03 01           6009 	call	_update_game_character
   0B87 E8 02              6010 	lda	sp,2(sp)
                           6011 ;	main.c 305
                           6012 ; genAssign
                           6013 ; AOP_STK for _main_i_1_1
   0B89 F8 0B              6014 	lda	hl,11(sp)
   0B8B 36 00              6015 	ld	(hl),#0x00
                           6016 ; genLabel
   0B8D                    6017 00136$:
                           6018 ; genCmpLt
                           6019 ; AOP_STK for _main_i_1_1
                           6020 ; AOP_STK for _main_sloc2_1_0
   0B8D F8 0B              6021 	lda	hl,11(sp)
   0B8F 7E                 6022 	ld	a,(hl)
   0B90 FE 03              6023 	cp	#0x03
   0B92 3E 00              6024 	ld	a,#0x00
   0B94 17                 6025 	rla
   0B95 F8 06              6026 	lda	hl,6(sp)
   0B97 77                 6027 	ld	(hl),a
                           6028 ; genIfx
                           6029 ; AOP_STK for _main_sloc2_1_0
                           6030 ; Removed redundent or a,a
   0B98 AF                 6031 	xor	a,a
   0B99 B6                 6032 	or	a,(hl)
   0B9A CA 6C 0C           6033 	jp	z,00132$
                           6034 ;	main.c 306
                           6035 ; genIpush
   0B9D 3E 0B              6036 	ld	a,#0x0B
   0B9F F5                 6037 	push	af
   0BA0 33                 6038 	inc	sp
                           6039 ; genIpush
                           6040 ; AOP_STK for _main_i_1_1
   0BA1 F8 0C              6041 	lda	hl,12(sp)
   0BA3 7E                 6042 	ld	a,(hl)
   0BA4 F5                 6043 	push	af
   0BA5 33                 6044 	inc	sp
                           6045 ; genCall
   0BA6 CD 00 00           6046 	call	__muluchar
                           6047 ; AOP_STK for _main_sloc3_1_0
   0BA9 F8 07              6048 	lda	hl,7(sp)
   0BAB 73                 6049 	ld	(hl),e
   0BAC E8 02              6050 	lda	sp,2(sp)
                           6051 ; genPlus
                           6052 ; AOP_STK for _main_sloc3_1_0
                           6053 ; AOP_STK for _main_sloc1_1_0
                           6054 ;	genPlusIncr failed
   0BAE 11 96 01           6055 	ld	de,#_enemies + 0
   0BB1 6E                 6056 	ld	l,(hl)
   0BB2 26 00              6057 	ld	h,#0x00
   0BB4 19                 6058 	add	hl,de
   0BB5 7D                 6059 	ld	a,l
   0BB6 54                 6060 	ld	d,h
   0BB7 F8 08              6061 	lda	hl,8(sp)
   0BB9 22                 6062 	ld	(hl+),a
   0BBA 72                 6063 	ld	(hl),d
                           6064 ; genIpush
                           6065 ; AOP_STK for _main_sloc1_1_0
   0BBB 2B                 6066 	dec	hl
   0BBC 2A                 6067 	ld	a,(hl+)
   0BBD 66                 6068 	ld	h,(hl)
   0BBE 6F                 6069 	ld	l,a
   0BBF E5                 6070 	push	hl
                           6071 ; genCall
   0BC0 CD 03 01           6072 	call	_update_game_character
   0BC3 E8 02              6073 	lda	sp,2(sp)
                           6074 ;	main.c 308
                           6075 ; genIpush
                           6076 ; AOP_STK for _main_sloc1_1_0
   0BC5 F8 08              6077 	lda	hl,8(sp)
   0BC7 2A                 6078 	ld	a,(hl+)
   0BC8 66                 6079 	ld	h,(hl)
   0BC9 6F                 6080 	ld	l,a
   0BCA E5                 6081 	push	hl
                           6082 ; genIpush
   0BCB 21 80 01           6083 	ld	hl,#_player + 0
   0BCE E5                 6084 	push	hl
                           6085 ; genCall
   0BCF CD D8 01           6086 	call	_check_collision
                           6087 ; AOP_STK for _main_sloc0_1_0
   0BD2 F8 0E              6088 	lda	hl,14(sp)
   0BD4 73                 6089 	ld	(hl),e
   0BD5 E8 04              6090 	lda	sp,4(sp)
                           6091 ; genIfx
                           6092 ; AOP_STK for _main_sloc0_1_0
                           6093 ; Removed redundent or a,a
   0BD7 AF                 6094 	xor	a,a
   0BD8 B6                 6095 	or	a,(hl)
   0BD9 CA EB 0B           6096 	jp	z,00122$
                           6097 ;	main.c 309
                           6098 ; genIpush
                           6099 ; AOP_STK for _main_sloc1_1_0
   0BDC 2B                 6100 	dec	hl
   0BDD 2B                 6101 	dec	hl
   0BDE 2A                 6102 	ld	a,(hl+)
   0BDF 66                 6103 	ld	h,(hl)
   0BE0 6F                 6104 	ld	l,a
   0BE1 E5                 6105 	push	hl
                           6106 ; genIpush
   0BE2 21 80 01           6107 	ld	hl,#_player + 0
   0BE5 E5                 6108 	push	hl
                           6109 ; genCall
   0BE6 CD 4F 03           6110 	call	_collide_game_characters
   0BE9 E8 04              6111 	lda	sp,4(sp)
                           6112 ; genLabel
   0BEB                    6113 00122$:
                           6114 ;	main.c 312
                           6115 ; genAssign
                           6116 ; AOP_STK for _main_j_1_1
   0BEB F8 0C              6117 	lda	hl,12(sp)
   0BED 36 00              6118 	ld	(hl),#0x00
                           6119 ; genLabel
   0BEF                    6120 00127$:
                           6121 ; genCmpLt
                           6122 ; AOP_STK for _main_j_1_1
                           6123 ; AOP_STK for _main_sloc4_1_0
   0BEF F8 0C              6124 	lda	hl,12(sp)
   0BF1 7E                 6125 	ld	a,(hl)
   0BF2 FE 03              6126 	cp	#0x03
   0BF4 3E 00              6127 	ld	a,#0x00
   0BF6 17                 6128 	rla
   0BF7 F8 04              6129 	lda	hl,4(sp)
   0BF9 77                 6130 	ld	(hl),a
                           6131 ; genIfx
                           6132 ; AOP_STK for _main_sloc4_1_0
                           6133 ; Removed redundent or a,a
   0BFA AF                 6134 	xor	a,a
   0BFB B6                 6135 	or	a,(hl)
   0BFC CA 62 0C           6136 	jp	z,00138$
                           6137 ;	main.c 313
                           6138 ; genCmpEq
                           6139 ; AOP_STK for _main_i_1_1
                           6140 ; AOP_STK for _main_j_1_1
                           6141 ; AOP_STK for _main_sloc5_1_0
   0BFF F8 0C              6142 	lda	hl,12(sp)
   0C01 7E                 6143 	ld	a,(hl)
   0C02 2B                 6144 	dec	hl
   0C03 BE                 6145 	cp	(hl) ; 5
   0C04 20 04              6146 	jr	nz,00162$
   0C06 3E 01              6147 	ld	a,#0x01
   0C08 18 01              6148 	jr	00163$
   0C0A                    6149 00162$:
   0C0A AF                 6150 	xor	a,a
   0C0B                    6151 00163$:
   0C0B F8 03              6152 	lda	hl,3(sp)
   0C0D 77                 6153 	ld	(hl),a
                           6154 ; genIfx
                           6155 ; AOP_STK for _main_sloc5_1_0
                           6156 ; Removed redundent or a,a
   0C0E AF                 6157 	xor	a,a
   0C0F B6                 6158 	or	a,(hl)
   0C10 C2 58 0C           6159 	jp	nz,00129$
                           6160 ;	main.c 317
                           6161 ; genIpush
   0C13 3E 0B              6162 	ld	a,#0x0B
   0C15 F5                 6163 	push	af
   0C16 33                 6164 	inc	sp
                           6165 ; genIpush
                           6166 ; AOP_STK for _main_j_1_1
   0C17 F8 0D              6167 	lda	hl,13(sp)
   0C19 7E                 6168 	ld	a,(hl)
   0C1A F5                 6169 	push	af
   0C1B 33                 6170 	inc	sp
                           6171 ; genCall
   0C1C CD 00 00           6172 	call	__muluchar
   0C1F 43                 6173 	ld	b,e
   0C20 E8 02              6174 	lda	sp,2(sp)
                           6175 ; genPlus
                           6176 ; AOP_STK for _main_sloc6_1_0
                           6177 ;	genPlusIncr failed
   0C22 11 96 01           6178 	ld	de,#_enemies + 0
   0C25 68                 6179 	ld	l,b
   0C26 26 00              6180 	ld	h,#0x00
   0C28 19                 6181 	add	hl,de
   0C29 7D                 6182 	ld	a,l
   0C2A 54                 6183 	ld	d,h
   0C2B F8 01              6184 	lda	hl,1(sp)
   0C2D 22                 6185 	ld	(hl+),a
   0C2E 72                 6186 	ld	(hl),d
                           6187 ; genIpush
                           6188 ; AOP_STK for _main_sloc6_1_0
   0C2F 2B                 6189 	dec	hl
   0C30 2A                 6190 	ld	a,(hl+)
   0C31 66                 6191 	ld	h,(hl)
   0C32 6F                 6192 	ld	l,a
   0C33 E5                 6193 	push	hl
                           6194 ; genIpush
                           6195 ; AOP_STK for _main_sloc1_1_0
   0C34 F8 0A              6196 	lda	hl,10(sp)
   0C36 2A                 6197 	ld	a,(hl+)
   0C37 66                 6198 	ld	h,(hl)
   0C38 6F                 6199 	ld	l,a
   0C39 E5                 6200 	push	hl
                           6201 ; genCall
   0C3A CD D8 01           6202 	call	_check_collision
                           6203 ; AOP_STK for _main_sloc7_1_0
   0C3D F8 04              6204 	lda	hl,4(sp)
   0C3F 73                 6205 	ld	(hl),e
   0C40 E8 04              6206 	lda	sp,4(sp)
                           6207 ; genIfx
                           6208 ; AOP_STK for _main_sloc7_1_0
                           6209 ; Removed redundent or a,a
   0C42 AF                 6210 	xor	a,a
   0C43 B6                 6211 	or	a,(hl)
   0C44 CA 58 0C           6212 	jp	z,00129$
                           6213 ;	main.c 319
                           6214 ; genIpush
                           6215 ; AOP_STK for _main_sloc1_1_0
   0C47 F8 08              6216 	lda	hl,8(sp)
   0C49 2A                 6217 	ld	a,(hl+)
   0C4A 66                 6218 	ld	h,(hl)
   0C4B 6F                 6219 	ld	l,a
   0C4C E5                 6220 	push	hl
                           6221 ; genIpush
                           6222 ; AOP_STK for _main_sloc6_1_0
   0C4D F8 03              6223 	lda	hl,3(sp)
   0C4F 2A                 6224 	ld	a,(hl+)
   0C50 66                 6225 	ld	h,(hl)
   0C51 6F                 6226 	ld	l,a
   0C52 E5                 6227 	push	hl
                           6228 ; genCall
   0C53 CD 4F 03           6229 	call	_collide_game_characters
   0C56 E8 04              6230 	lda	sp,4(sp)
                           6231 ; genLabel
   0C58                    6232 00129$:
                           6233 ;	main.c 312
                           6234 ; genPlus
                           6235 ; AOP_STK for _main_j_1_1
                           6236 ; genPlusIncr
                           6237 ;	genPlusIncr failed
   0C58 F8 0C              6238 	lda	hl,12(sp)
   0C5A 7E                 6239 	ld	a,(hl)
   0C5B C6 01              6240 	add	a,#0x01
   0C5D 4F                 6241 	ld	c,a
                           6242 ; genAssign
                           6243 ; AOP_STK for _main_j_1_1
   0C5E 71                 6244 	ld	(hl),c
                           6245 ; genGoto
   0C5F C3 EF 0B           6246 	jp	00127$
                           6247 ; genLabel
   0C62                    6248 00138$:
                           6249 ;	main.c 305
                           6250 ; genPlus
                           6251 ; AOP_STK for _main_i_1_1
                           6252 ; genPlusIncr
                           6253 ;	genPlusIncr failed
   0C62 F8 0B              6254 	lda	hl,11(sp)
   0C64 7E                 6255 	ld	a,(hl)
   0C65 C6 01              6256 	add	a,#0x01
   0C67 4F                 6257 	ld	c,a
                           6258 ; genAssign
                           6259 ; AOP_STK for _main_i_1_1
   0C68 71                 6260 	ld	(hl),c
                           6261 ; genGoto
   0C69 C3 8D 0B           6262 	jp	00136$
                           6263 ; genLabel
   0C6C                    6264 00132$:
                           6265 ;	main.c 330
                           6266 ; genCall
   0C6C CD 00 00           6267 	call	_wait_vbl_done
                           6268 ; genGoto
   0C6F C3 19 09           6269 	jp	00134$
                           6270 ; genLabel
   0C72                    6271 00140$:
                           6272 ; genEndFunction
   0C72 E8 0E              6273 	lda	sp,14(sp)
   0C74 C1                 6274 	pop	bc
   0C75 C9                 6275 	ret
   0C76                    6276 ___main_end:
                           6277 	.area _CODE
ASxxxx Assembler V01.75  (GameBoy Z80-like CPU), page 1.

Symbol Table

    _BCPD_REG                          **** GX
    _BCPS_REG                          **** GX
    _BGP_REG                           **** GX
    _DIV_REG                           **** GX
    _DMA_REG                           **** GX
    _HDMA1_REG                         **** GX
    _HDMA2_REG                         **** GX
    _HDMA3_REG                         **** GX
    _HDMA4_REG                         **** GX
    _HDMA5_REG                         **** GX
    _IE_REG                            **** GX
    _IF_REG                            **** GX
    _KEY1_REG                          **** GX
    _LCDC_REG                          **** GX
    _LYC_REG                           **** GX
    _LY_REG                            **** GX
    _NR10_REG                          **** GX
    _NR11_REG                          **** GX
    _NR12_REG                          **** GX
    _NR13_REG                          **** GX
    _NR14_REG                          **** GX
    _NR21_REG                          **** GX
    _NR22_REG                          **** GX
    _NR23_REG                          **** GX
    _NR24_REG                          **** GX
    _NR30_REG                          **** GX
    _NR31_REG                          **** GX
    _NR32_REG                          **** GX
    _NR33_REG                          **** GX
    _NR34_REG                          **** GX
    _NR41_REG                          **** GX
    _NR42_REG                          **** GX
    _NR43_REG                          **** GX
    _NR44_REG                          **** GX
    _NR50_REG                          **** GX
    _NR51_REG                          **** GX
    _NR52_REG                          **** GX
    _OBP0_REG                          **** GX
    _OBP1_REG                          **** GX
    _OCPD_REG                          **** GX
    _OCPS_REG                          **** GX
    _P1_REG                            **** GX
    _RP_REG                            **** GX
    _SB_REG                            **** GX
    _SCX_REG                           **** GX
    _SCY_REG                           **** GX
    _SC_REG                            **** GX
    _STAT_REG                          **** GX
    _SVBK_REG                          **** GX
  1 _SpriteData                        0000 GR
    _TAC_REG                           **** GX
    _TIMA_REG                          **** GX
    _TMA_REG                           **** GX
    _VBK_REG                           **** GX
    _WX_REG                            **** GX
    _WY_REG                            **** GX
  0 ___check_collision_end             034F R
  0 ___check_collision_start           01D8 R
  0 ___collide_game_characters_end     0586 R
  0 ___collide_game_characters_start   034F R
  0 ___fire_bullet_end                 089B R
  0 ___fire_bullet_start               07F1 R
  0 ___main_end                        0C76 R
  0 ___main_start                      089B R
  0 ___move_game_character_end         0103 R
  0 ___move_game_character_start       007D R
  0 ___performant_delay_end            0014 R
  0 ___performant_delay_start          0000 R
  0 ___play_sound_end                  007D R
  0 ___play_sound_start                005C R
  0 ___rand_range_end                  005C R
  0 ___rand_range_start                0014 R
  0 ___set_up_bullet_end               0708 R
  0 ___set_up_bullet_start             064A R
  0 ___set_up_enemy_end                07F1 R
  0 ___set_up_enemy_start              0708 R
  0 ___set_up_player_end               064A R
  0 ___set_up_player_start             0586 R
  0 ___update_game_character_end       01D8 R
  0 ___update_game_character_start     0103 R
    __cpu                              **** GX
    __io_in                            **** GX
    __io_out                           **** GX
    __io_status                        **** GX
    __modsint                          **** GX
    __moduchar                         **** GX
    __muluchar                         **** GX
  1 _bullet                            018B GR
  0 _check_collision                   01D8 GR
  0 _collide_game_characters           034F GR
  1 _enemies                           0196 GR
  0 _fire_bullet                       07F1 GR
    _joypad                            **** GX
  0 _main                              089B GR
  0 _move_game_character               007D GR
    _move_sprite                       **** GX
  1 _next_sprite_index                 01B8 GR
  0 _performant_delay                  0000 GR
  0 _play_sound                        005C GR
  1 _player                            0180 GR
    _rand                              **** GX
  0 _rand_range                        0014 GR
    _set_sprite_data                   **** GX
    _set_sprite_tile                   **** GX
  0 _set_up_bullet                     064A GR
  0 _set_up_enemy                      0708 GR
  0 _set_up_player                     0586 GR
    _sys_time                          **** GX
  1 _update_count                      01B7 GR
  0 _update_game_character             0103 GR
    _wait_vbl_done                     **** GX

ASxxxx Assembler V01.75  (GameBoy Z80-like CPU), page 2.

Area Table

   0 _CODE                              size  C76   flags 0
   1 _DATA                              size  1B9   flags 0
   2 _OVERLAY                           size    0   flags 0
   3 _ISEG                              size    0   flags 0
   4 _BSEG                              size    0   flags 0
   5 _XSEG                              size    0   flags 0
   6 _GSINIT                            size  90A   flags 0
   7 _GSFINAL                           size    0   flags 0
   8 _HOME                              size    0   flags 0
